---
triple:          'arm64-apple-darwin'
binary-path:     'fuzz/fuzz_poseidon_ubsan'
relocations:
  - { offset: 0x42B4, size: 0x8, addend: 0x0, symName: __ZN6fuzzer18MutationDispatcher9CrossOverEPKhmS2_mPhm, symObjAddr: 0x0, symBinAddr: 0x100011FC0, symSize: 0x1A4 }
  - { offset: 0xAAF8, size: 0x8, addend: 0x0, symName: __ZN6fuzzer18MutationDispatcher9CrossOverEPKhmS2_mPhm, symObjAddr: 0x0, symBinAddr: 0x100011FC0, symSize: 0x1A4 }
  - { offset: 0xD1ED, size: 0x8, addend: 0x0, symName: __ZN6fuzzer13BlockCoverage14AppendCoverageERKNSt3__112basic_stringIcNS1_11char_traitsIcEENS1_9allocatorIcEEEE, symObjAddr: 0x0, symBinAddr: 0x100012164, symSize: 0x1E0 }
  - { offset: 0xD216, size: 0x8, addend: 0x0, symName: __ZN6fuzzer15CollectDataFlowERKNSt3__112basic_stringIcNS0_11char_traitsIcEENS0_9allocatorIcEEEES8_RKNS0_6vectorINS_9SizedFileENS4_ISA_EEEE, symObjAddr: 0x25C4, symBinAddr: 0x100014728, symSize: 0x54C }
  - { offset: 0xD241, size: 0x8, addend: 0x0, symName: __ZZN6fuzzer15CollectDataFlowERKNSt3__112basic_stringIcNS0_11char_traitsIcEENS0_9allocatorIcEEEES8_RKNS0_6vectorINS_9SizedFileENS4_ISA_EEEEE8DFSanEnv, symObjAddr: 0x5C7E, symBinAddr: 0x10005FA80, symSize: 0x0 }
  - { offset: 0xEFDC, size: 0x8, addend: 0x0, symName: __ZNK6fuzzer7Command8toStringEv, symObjAddr: 0x2B10, symBinAddr: 0x100014C74, symSize: 0x3F8 }
  - { offset: 0x13321, size: 0x8, addend: 0x0, symName: __ZNSt3__119piecewise_constructE, symObjAddr: 0x5CA1, symBinAddr: 0x100050990, symSize: 0x0 }
  - { offset: 0x1DF26, size: 0x8, addend: 0x0, symName: __ZNSt3__124__put_character_sequenceB8nn210108IcNS_11char_traitsIcEEEERNS_13basic_ostreamIT_T0_EES7_PKS4_m, symObjAddr: 0x33D8, symBinAddr: 0x10001553C, symSize: 0x124 }
  - { offset: 0x2A7D5, size: 0x8, addend: 0x0, symName: __ZNSt3__17getlineB8nn210108IcNS_11char_traitsIcEENS_9allocatorIcEEEERNS_13basic_istreamIT_T0_EES9_RNS_12basic_stringIS6_S7_T1_EES6_, symObjAddr: 0x8E8, symBinAddr: 0x100012A4C, symSize: 0x2CC }
  - { offset: 0x2E24E, size: 0x8, addend: 0x0, symName: __ZNSt3__120__throw_length_errorB8nn210108EPKc, symObjAddr: 0x2F1C, symBinAddr: 0x100015080, symSize: 0x1C }
  - { offset: 0x2E27C, size: 0x8, addend: 0x0, symName: __ZSt28__throw_bad_array_new_lengthB8nn210108v, symObjAddr: 0x2F38, symBinAddr: 0x10001509C, symSize: 0x14 }
  - { offset: 0x2EC74, size: 0x8, addend: 0x0, symName: __ZNSt3__116__pad_and_outputB8nn210108IcNS_11char_traitsIcEEEENS_19ostreambuf_iteratorIT_T0_EES6_PKS4_S8_S8_RNS_8ios_baseES4_, symObjAddr: 0x34FC, symBinAddr: 0x100015660, symSize: 0x22C }
  - { offset: 0x2F1E5, size: 0x8, addend: 0x0, symName: __ZNSt3__112basic_stringIcNS_11char_traitsIcEENS_9allocatorIcEEE20__throw_length_errorB8nn210108Ev, symObjAddr: 0x3728, symBinAddr: 0x10001588C, symSize: 0x14 }
  - { offset: 0x2F2A4, size: 0x8, addend: 0x0, symName: __ZNSt3__120__throw_out_of_rangeB8nn210108EPKc, symObjAddr: 0x3750, symBinAddr: 0x1000158B4, symSize: 0x1C }
  - { offset: 0x2F2D2, size: 0x8, addend: 0x0, symName: __ZNSt3__112basic_stringIcNS_11char_traitsIcEENS_9allocatorIcEEE25__init_copy_ctor_externalEPKcm, symObjAddr: 0x376C, symBinAddr: 0x1000158D0, symSize: 0x8C }
  - { offset: 0x31139, size: 0x8, addend: 0x0, symName: __ZSt28__throw_bad_array_new_lengthB8nn210108v, symObjAddr: 0x2F38, symBinAddr: 0x10001509C, symSize: 0x14 }
  - { offset: 0x31157, size: 0x8, addend: 0x0, symName: __ZNSt3__16vectorINS_12basic_stringIcNS_11char_traitsIcEENS_9allocatorIcEEEENS4_IS6_EEE6insertENS_11__wrap_iterIPKS6_EERSA_, symObjAddr: 0x2F4C, symBinAddr: 0x1000150B0, symSize: 0x260 }
  - { offset: 0x331D7, size: 0x8, addend: 0x0, symName: __ZN6fuzzer13BlockCoverage14AppendCoverageERKNSt3__112basic_stringIcNS1_11char_traitsIcEENS1_9allocatorIcEEEE, symObjAddr: 0x0, symBinAddr: 0x100012164, symSize: 0x1E0 }
  - { offset: 0x33549, size: 0x8, addend: 0x0, symName: __ZN6fuzzer13BlockCoverage14AppendCoverageERNSt3__113basic_istreamIcNS1_11char_traitsIcEEEE, symObjAddr: 0x1E0, symBinAddr: 0x100012344, symSize: 0x708 }
  - { offset: 0x34A4F, size: 0x8, addend: 0x0, symName: __ZNSt3__17getlineB8nn210108IcNS_11char_traitsIcEENS_9allocatorIcEEEERNS_13basic_istreamIT_T0_EES9_RNS_12basic_stringIS6_S7_T1_EES6_, symObjAddr: 0x8E8, symBinAddr: 0x100012A4C, symSize: 0x2CC }
  - { offset: 0x3569F, size: 0x8, addend: 0x0, symName: __ZNSt3__112__hash_tableImNS_4hashImEENS_8equal_toImEENS_9allocatorImEEE25__emplace_unique_key_argsImJRKmEEENS_4pairINS_15__hash_iteratorIPNS_11__hash_nodeImPvEEEEbEERKT_DpOT0_, symObjAddr: 0x39B8, symBinAddr: 0x100015B1C, symSize: 0x320 }
  - { offset: 0x35C26, size: 0x8, addend: 0x0, symName: __ZNSt3__112__hash_tableINS_17__hash_value_typeImNS_6vectorIjNS_9allocatorIjEEEEEENS_22__unordered_map_hasherImNS_4pairIKmS5_EENS_4hashImEENS_8equal_toImEELb1EEENS_21__unordered_map_equalImSA_SE_SC_Lb1EEENS3_ISA_EEE25__emplace_unique_key_argsImJSA_EEENS8_INS_15__hash_iteratorIPNS_11__hash_nodeIS6_PvEEEEbEERKT_DpOT0_, symObjAddr: 0x3EB8, symBinAddr: 0x10001601C, symSize: 0x338 }
  - { offset: 0x3629E, size: 0x8, addend: 0x0, symName: __ZNSt3__16vectorIjNS_9allocatorIjEEE20__throw_length_errorB8nn210108Ev, symObjAddr: 0x3EA4, symBinAddr: 0x100016008, symSize: 0x14 }
  - { offset: 0x362B6, size: 0x8, addend: 0x0, symName: __ZNSt3__112__hash_tableINS_17__hash_value_typeImNS_6vectorIjNS_9allocatorIjEEEEEENS_22__unordered_map_hasherImNS_4pairIKmS5_EENS_4hashImEENS_8equal_toImEELb1EEENS_21__unordered_map_equalImSA_SE_SC_Lb1EEENS3_ISA_EEE25__emplace_unique_key_argsImJSA_EEENS8_INS_15__hash_iteratorIPNS_11__hash_nodeIS6_PvEEEEbEERKT_DpOT0_, symObjAddr: 0x3EB8, symBinAddr: 0x10001601C, symSize: 0x338 }
  - { offset: 0x362C1, size: 0x8, addend: 0x0, symName: __ZNSt3__112basic_stringIcNS_11char_traitsIcEENS_9allocatorIcEEE20__throw_length_errorB8nn210108Ev, symObjAddr: 0x3728, symBinAddr: 0x10001588C, symSize: 0x14 }
  - { offset: 0x362D9, size: 0x8, addend: 0x0, symName: __ZNSt3__112basic_stringIcNS_11char_traitsIcEENS_9allocatorIcEEE20__throw_out_of_rangeB8nn210108Ev, symObjAddr: 0x373C, symBinAddr: 0x1000158A0, symSize: 0x14 }
  - { offset: 0x36525, size: 0x8, addend: 0x0, symName: __ZNSt3__112basic_stringIcNS_11char_traitsIcEENS_9allocatorIcEEE6appendB8nn210108IPKcTnNS_9enable_ifIXsr31__has_forward_iterator_categoryIT_EE5valueEiE4typeELi0EEERS5_SA_SA_, symObjAddr: 0x37F8, symBinAddr: 0x10001595C, symSize: 0x1C0 }
  - { offset: 0x36D0B, size: 0x8, addend: 0x0, symName: __ZNSt3__112__hash_tableImNS_4hashImEENS_8equal_toImEENS_9allocatorImEEE25__emplace_unique_key_argsImJRKmEEENS_4pairINS_15__hash_iteratorIPNS_11__hash_nodeImPvEEEEbEERKT_DpOT0_, symObjAddr: 0x39B8, symBinAddr: 0x100015B1C, symSize: 0x320 }
  - { offset: 0x37292, size: 0x8, addend: 0x0, symName: __ZNK6fuzzer13BlockCoverage15FunctionWeightsEm, symObjAddr: 0xBB4, symBinAddr: 0x100012D18, symSize: 0x378 }
  - { offset: 0x37B32, size: 0x8, addend: 0x0, symName: __ZN6fuzzer13DataFlowTrace12ReadCoverageERKNSt3__112basic_stringIcNS1_11char_traitsIcEENS1_9allocatorIcEEEE, symObjAddr: 0xF2C, symBinAddr: 0x100013090, symSize: 0x274 }
  - { offset: 0x37B3D, size: 0x8, addend: 0x0, symName: __ZNSt3__16vectorIdNS_9allocatorIdEEE20__throw_length_errorB8nn210108Ev, symObjAddr: 0x43BC, symBinAddr: 0x100016520, symSize: 0x14 }
  - { offset: 0x37B55, size: 0x8, addend: 0x0, symName: __ZNKSt3__112__hash_tableINS_12basic_stringIcNS_11char_traitsIcEENS_9allocatorIcEEEENS_4hashIS6_EENS_8equal_toIS6_EENS4_IS6_EEE4findIS6_EENS_21__hash_const_iteratorIPNS_11__hash_nodeIS6_PvEEEERKT_, symObjAddr: 0x43D0, symBinAddr: 0x100016534, symSize: 0x1DC }
  - { offset: 0x38440, size: 0x8, addend: 0x0, symName: __ZN6fuzzer13DataFlowTrace12ReadCoverageERKNSt3__112basic_stringIcNS1_11char_traitsIcEENS1_9allocatorIcEEEE, symObjAddr: 0xF2C, symBinAddr: 0x100013090, symSize: 0x274 }
  - { offset: 0x38DA5, size: 0x8, addend: 0x0, symName: __ZN6fuzzer13DataFlowTrace4InitERKNSt3__112basic_stringIcNS1_11char_traitsIcEENS1_9allocatorIcEEEEPS7_RNS1_6vectorINS_9SizedFileENS5_ISC_EEEERNS_6RandomE, symObjAddr: 0x11A0, symBinAddr: 0x100013304, symSize: 0x1238 }
  - { offset: 0x38DCC, size: 0x8, addend: 0x0, symName: __ZNKSt3__112__hash_tableINS_12basic_stringIcNS_11char_traitsIcEENS_9allocatorIcEEEENS_4hashIS6_EENS_8equal_toIS6_EENS4_IS6_EEE4findIS6_EENS_21__hash_const_iteratorIPNS_11__hash_nodeIS6_PvEEEERKT_, symObjAddr: 0x43D0, symBinAddr: 0x100016534, symSize: 0x1DC }
  - { offset: 0x39169, size: 0x8, addend: 0x0, symName: __ZNSt3__112basic_stringIcNS_11char_traitsIcEENS_9allocatorIcEEE20__throw_out_of_rangeB8nn210108Ev, symObjAddr: 0x373C, symBinAddr: 0x1000158A0, symSize: 0x14 }
  - { offset: 0x39181, size: 0x8, addend: 0x0, symName: __ZNSt3__120__throw_out_of_rangeB8nn210108EPKc, symObjAddr: 0x3750, symBinAddr: 0x1000158B4, symSize: 0x1C }
  - { offset: 0x3A135, size: 0x8, addend: 0x0, symName: __ZN6fuzzer13DataFlowTrace4InitERKNSt3__112basic_stringIcNS1_11char_traitsIcEENS1_9allocatorIcEEEEPS7_RNS1_6vectorINS_9SizedFileENS5_ISC_EEEERNS_6RandomE, symObjAddr: 0x11A0, symBinAddr: 0x100013304, symSize: 0x1238 }
  - { offset: 0x3E1B7, size: 0x8, addend: 0x0, symName: __ZN6fuzzer13BlockCoverage24GetNumberOfCoveredBlocksEm, symObjAddr: 0x23D8, symBinAddr: 0x10001453C, symSize: 0x1EC }
  - { offset: 0x3E1CE, size: 0x8, addend: 0x0, symName: __ZNSt3__112__hash_tableINS_12basic_stringIcNS_11char_traitsIcEENS_9allocatorIcEEEENS_4hashIS6_EENS_8equal_toIS6_EENS4_IS6_EEE25__emplace_unique_key_argsIS6_JS6_EEENS_4pairINS_15__hash_iteratorIPNS_11__hash_nodeIS6_PvEEEEbEERKT_DpOT0_, symObjAddr: 0x45AC, symBinAddr: 0x100016710, symSize: 0x3C0 }
  - { offset: 0x3E9CC, size: 0x8, addend: 0x0, symName: __ZNSt3__112basic_stringIcNS_11char_traitsIcEENS_9allocatorIcEEE25__init_copy_ctor_externalEPKcm, symObjAddr: 0x376C, symBinAddr: 0x1000158D0, symSize: 0x8C }
  - { offset: 0x3EB8D, size: 0x8, addend: 0x0, symName: __ZNSt3__112basic_stringIcNS_11char_traitsIcEENS_9allocatorIcEEE6appendB8nn210108IPKcTnNS_9enable_ifIXsr31__has_forward_iterator_categoryIT_EE5valueEiE4typeELi0EEERS5_SA_SA_, symObjAddr: 0x37F8, symBinAddr: 0x10001595C, symSize: 0x1C0 }
  - { offset: 0x3EB98, size: 0x8, addend: 0x0, symName: __ZNSt3__131piecewise_constant_distributionIdE10param_typeC2INS_11__wrap_iterIPdEES6_EET_S7_T0_, symObjAddr: 0x4B38, symBinAddr: 0x100016C9C, symSize: 0x1A4 }
  - { offset: 0x3F3A5, size: 0x8, addend: 0x0, symName: __ZNSt3__16vectorIdNS_9allocatorIdEEE6assignEmRKd, symObjAddr: 0x4CDC, symBinAddr: 0x100016E40, symSize: 0x1EC }
  - { offset: 0x3F3C2, size: 0x8, addend: 0x0, symName: __ZN6fuzzer13BlockCoverage24GetNumberOfCoveredBlocksEm, symObjAddr: 0x23D8, symBinAddr: 0x10001453C, symSize: 0x1EC }
  - { offset: 0x3F42A, size: 0x8, addend: 0x0, symName: __ZN6fuzzer13BlockCoverage24GetNumberOfCoveredBlocksEm, symObjAddr: 0x23D8, symBinAddr: 0x10001453C, symSize: 0x1EC }
  - { offset: 0x3F447, size: 0x8, addend: 0x0, symName: __ZN6fuzzer13BlockCoverage24GetNumberOfCoveredBlocksEm, symObjAddr: 0x23D8, symBinAddr: 0x10001453C, symSize: 0x1EC }
  - { offset: 0x3F46F, size: 0x8, addend: 0x0, symName: __ZN6fuzzer13BlockCoverage24GetNumberOfCoveredBlocksEm, symObjAddr: 0x23D8, symBinAddr: 0x10001453C, symSize: 0x1EC }
  - { offset: 0x3F48D, size: 0x8, addend: 0x0, symName: __ZN6fuzzer13BlockCoverage24GetNumberOfCoveredBlocksEm, symObjAddr: 0x23D8, symBinAddr: 0x10001453C, symSize: 0x1EC }
  - { offset: 0x3F621, size: 0x8, addend: 0x0, symName: __ZNSt3__112__hash_tableINS_17__hash_value_typeINS_12basic_stringIcNS_11char_traitsIcEENS_9allocatorIcEEEENS_6vectorIhNS5_IhEEEEEENS_22__unordered_map_hasherIS7_NS_4pairIKS7_SA_EENS_4hashIS7_EENS_8equal_toIS7_EELb1EEENS_21__unordered_map_equalIS7_SF_SJ_SH_Lb1EEENS5_ISF_EEE25__emplace_unique_key_argsIS7_JRKNS_21piecewise_construct_tENS_5tupleIJRSE_EEENST_IJEEEEEENSD_INS_15__hash_iteratorIPNS_11__hash_nodeISB_PvEEEEbEERKT_DpOT0_, symObjAddr: 0x53B0, symBinAddr: 0x100017514, symSize: 0x3DC }
  - { offset: 0x3FF48, size: 0x8, addend: 0x0, symName: __ZNSt3__16vectorINS_12basic_stringIcNS_11char_traitsIcEENS_9allocatorIcEEEENS4_IS6_EEE20__throw_length_errorB8nn210108Ev, symObjAddr: 0x33C4, symBinAddr: 0x100015528, symSize: 0x14 }
  - { offset: 0x3FF60, size: 0x8, addend: 0x0, symName: __ZNSt3__124__put_character_sequenceB8nn210108IcNS_11char_traitsIcEEEERNS_13basic_ostreamIT_T0_EES7_PKS4_m, symObjAddr: 0x33D8, symBinAddr: 0x10001553C, symSize: 0x124 }
  - { offset: 0x3FF6B, size: 0x8, addend: 0x0, symName: __ZNSt3__16vectorIhNS_9allocatorIhEEE20__throw_length_errorB8nn210108Ev, symObjAddr: 0x2F08, symBinAddr: 0x10001506C, symSize: 0x14 }
  - { offset: 0x3FF83, size: 0x8, addend: 0x0, symName: __ZNSt3__120__throw_length_errorB8nn210108EPKc, symObjAddr: 0x2F1C, symBinAddr: 0x100015080, symSize: 0x1C }
  - { offset: 0x40151, size: 0x8, addend: 0x0, symName: __ZNSt3__16vectorINS_12basic_stringIcNS_11char_traitsIcEENS_9allocatorIcEEEENS4_IS6_EEE6insertENS_11__wrap_iterIPKS6_EERSA_, symObjAddr: 0x2F4C, symBinAddr: 0x1000150B0, symSize: 0x260 }
  - { offset: 0x40A5D, size: 0x8, addend: 0x0, symName: __ZNSt3__114__split_bufferINS_12basic_stringIcNS_11char_traitsIcEENS_9allocatorIcEEEERNS4_IS6_EEE12emplace_backIJRKS6_EEEvDpOT_, symObjAddr: 0x31AC, symBinAddr: 0x100015310, symSize: 0x218 }
  - { offset: 0x40A68, size: 0x8, addend: 0x0, symName: __ZNK6fuzzer7Command8toStringEv, symObjAddr: 0x2B10, symBinAddr: 0x100014C74, symSize: 0x3F8 }
  - { offset: 0x417E7, size: 0x8, addend: 0x0, symName: __ZNSt3__16vectorIhNS_9allocatorIhEEE20__throw_length_errorB8nn210108Ev, symObjAddr: 0x2F08, symBinAddr: 0x10001506C, symSize: 0x14 }
  - { offset: 0x41DE3, size: 0x8, addend: 0x0, symName: __ZNSt3__114__split_bufferINS_12basic_stringIcNS_11char_traitsIcEENS_9allocatorIcEEEERNS4_IS6_EEE12emplace_backIJRKS6_EEEvDpOT_, symObjAddr: 0x31AC, symBinAddr: 0x100015310, symSize: 0x218 }
  - { offset: 0x42650, size: 0x8, addend: 0x0, symName: __ZNSt3__16vectorINS_12basic_stringIcNS_11char_traitsIcEENS_9allocatorIcEEEENS4_IS6_EEE20__throw_length_errorB8nn210108Ev, symObjAddr: 0x33C4, symBinAddr: 0x100015528, symSize: 0x14 }
  - { offset: 0x42F68, size: 0x8, addend: 0x0, symName: __ZNSt3__112__hash_tableImNS_4hashImEENS_8equal_toImEENS_9allocatorImEEE11__do_rehashILb1EEEvm, symObjAddr: 0x3CD8, symBinAddr: 0x100015E3C, symSize: 0x1CC }
  - { offset: 0x4331A, size: 0x8, addend: 0x0, symName: __ZNSt3__16vectorIjNS_9allocatorIjEEE20__throw_length_errorB8nn210108Ev, symObjAddr: 0x3EA4, symBinAddr: 0x100016008, symSize: 0x14 }
  - { offset: 0x436A9, size: 0x8, addend: 0x0, symName: __ZNSt3__112__hash_tableINS_17__hash_value_typeImNS_6vectorIjNS_9allocatorIjEEEEEENS_22__unordered_map_hasherImNS_4pairIKmS5_EENS_4hashImEENS_8equal_toImEELb1EEENS_21__unordered_map_equalImSA_SE_SC_Lb1EEENS3_ISA_EEE11__do_rehashILb1EEEvm, symObjAddr: 0x41F0, symBinAddr: 0x100016354, symSize: 0x1CC }
  - { offset: 0x43A5B, size: 0x8, addend: 0x0, symName: __ZNSt3__16vectorIdNS_9allocatorIdEEE20__throw_length_errorB8nn210108Ev, symObjAddr: 0x43BC, symBinAddr: 0x100016520, symSize: 0x14 }
  - { offset: 0x43E7C, size: 0x8, addend: 0x0, symName: __ZNSt3__112__hash_tableINS_12basic_stringIcNS_11char_traitsIcEENS_9allocatorIcEEEENS_4hashIS6_EENS_8equal_toIS6_EENS4_IS6_EEE11__do_rehashILb1EEEvm, symObjAddr: 0x496C, symBinAddr: 0x100016AD0, symSize: 0x1CC }
  - { offset: 0x4422E, size: 0x8, addend: 0x0, symName: __ZNSt3__131piecewise_constant_distributionIdE10param_typeC2INS_11__wrap_iterIPdEES6_EET_S7_T0_, symObjAddr: 0x4B38, symBinAddr: 0x100016C9C, symSize: 0x1A4 }
  - { offset: 0x44715, size: 0x8, addend: 0x0, symName: __ZNSt3__16vectorIdNS_9allocatorIdEEE8__appendEm, symObjAddr: 0x5204, symBinAddr: 0x100017368, symSize: 0x1AC }
  - { offset: 0x44B7C, size: 0x8, addend: 0x0, symName: __ZNSt3__112__hash_tableINS_17__hash_value_typeINS_12basic_stringIcNS_11char_traitsIcEENS_9allocatorIcEEEENS_6vectorIhNS5_IhEEEEEENS_22__unordered_map_hasherIS7_NS_4pairIKS7_SA_EENS_4hashIS7_EENS_8equal_toIS7_EELb1EEENS_21__unordered_map_equalIS7_SF_SJ_SH_Lb1EEENS5_ISF_EEE25__emplace_unique_key_argsIS7_JRKNS_21piecewise_construct_tENS_5tupleIJRSE_EEENST_IJEEEEEENSD_INS_15__hash_iteratorIPNS_11__hash_nodeISB_PvEEEEbEERKT_DpOT0_, symObjAddr: 0x53B0, symBinAddr: 0x100017514, symSize: 0x3DC }
  - { offset: 0x44B87, size: 0x8, addend: 0x0, symName: __ZNSt3__16vectorIdNS_9allocatorIdEEE6assignEmRKd, symObjAddr: 0x4CDC, symBinAddr: 0x100016E40, symSize: 0x1EC }
  - { offset: 0x450A1, size: 0x8, addend: 0x0, symName: __ZNSt3__16vectorIdNS_9allocatorIdEEE9push_backB8nn210108ERKd, symObjAddr: 0x4EC8, symBinAddr: 0x10001702C, symSize: 0xF8 }
  - { offset: 0x450AC, size: 0x8, addend: 0x0, symName: __ZNSt3__16vectorIdNS_9allocatorIdEEE9push_backB8nn210108ERKd, symObjAddr: 0x4EC8, symBinAddr: 0x10001702C, symSize: 0xF8 }
  - { offset: 0x45509, size: 0x8, addend: 0x0, symName: __ZNSt3__131piecewise_constant_distributionIdE10param_type6__initEv, symObjAddr: 0x4FC0, symBinAddr: 0x100017124, symSize: 0x244 }
  - { offset: 0x45514, size: 0x8, addend: 0x0, symName: __ZNSt3__131piecewise_constant_distributionIdE10param_type6__initEv, symObjAddr: 0x4FC0, symBinAddr: 0x100017124, symSize: 0x244 }
  - { offset: 0x45F3C, size: 0x8, addend: 0x0, symName: __ZNSt3__112__hash_tableINS_17__hash_value_typeINS_12basic_stringIcNS_11char_traitsIcEENS_9allocatorIcEEEENS_6vectorIhNS5_IhEEEEEENS_22__unordered_map_hasherIS7_NS_4pairIKS7_SA_EENS_4hashIS7_EENS_8equal_toIS7_EELb1EEENS_21__unordered_map_equalIS7_SF_SJ_SH_Lb1EEENS5_ISF_EEE11__do_rehashILb1EEEvm, symObjAddr: 0x578C, symBinAddr: 0x1000178F0, symSize: 0x1CC }
  - { offset: 0x4816E, size: 0x8, addend: 0x0, symName: __ZN6fuzzerL2MuE, symObjAddr: 0x99A8, symBinAddr: 0x10005FAA8, symSize: 0x0 }
  - { offset: 0x48189, size: 0x8, addend: 0x0, symName: __ZN6fuzzer2EFE, symObjAddr: 0x148CD0, symBinAddr: 0x100061600, symSize: 0x0 }
  - { offset: 0x482AB, size: 0x8, addend: 0x0, symName: __MergedGlobals, symObjAddr: 0x148CD8, symBinAddr: 0x1000612A0, symSize: 0x0 }
  - { offset: 0x486F3, size: 0x8, addend: 0x0, symName: __MergedGlobals, symObjAddr: 0x148CD8, symBinAddr: 0x1000612A0, symSize: 0x0 }
  - { offset: 0x4870F, size: 0x8, addend: 0x0, symName: __MergedGlobals, symObjAddr: 0x148CD8, symBinAddr: 0x1000612A0, symSize: 0x0 }
  - { offset: 0x48738, size: 0x8, addend: 0x0, symName: __ZN6fuzzerL16FlagDescriptionsE, symObjAddr: 0xCA08, symBinAddr: 0x100054598, symSize: 0x0 }
  - { offset: 0x4A30F, size: 0x8, addend: 0x0, symName: __ZN6fuzzer17CloneArgsWithoutXERKNSt3__16vectorINS0_12basic_stringIcNS0_11char_traitsIcEENS0_9allocatorIcEEEENS5_IS7_EEEEPKcSD_, symObjAddr: 0x4, symBinAddr: 0x100017AC0, symSize: 0x244 }
  - { offset: 0x4ABF4, size: 0x8, addend: 0x0, symName: __ZN6fuzzer10RunOneTestEPNS_6FuzzerEPKcm, symObjAddr: 0x248, symBinAddr: 0x100017D04, symSize: 0x160 }
  - { offset: 0x4ABFF, size: 0x8, addend: 0x0, symName: __ZN6fuzzer10RunOneTestEPNS_6FuzzerEPKcm, symObjAddr: 0x248, symBinAddr: 0x100017D04, symSize: 0x160 }
  - { offset: 0x4B26B, size: 0x8, addend: 0x0, symName: __ZNSt3__112basic_stringIcNS_11char_traitsIcEENS_9allocatorIcEEEC1B8nn210108ILi0EEEPKc, symObjAddr: 0x3A8, symBinAddr: 0x100017E64, symSize: 0xA8 }
  - { offset: 0x4B295, size: 0x8, addend: 0x0, symName: __ZN6fuzzer17CleanseCrashInputERKNSt3__16vectorINS0_12basic_stringIcNS0_11char_traitsIcEENS0_9allocatorIcEEEENS5_IS7_EEEERKNS_14FuzzingOptionsE, symObjAddr: 0x450, symBinAddr: 0x100017F0C, symSize: 0x9D4 }
  - { offset: 0x4D480, size: 0x8, addend: 0x0, symName: __ZN6fuzzer7Command10removeFlagERKNSt3__112basic_stringIcNS1_11char_traitsIcEENS1_9allocatorIcEEEE, symObjAddr: 0xE24, symBinAddr: 0x1000188E0, symSize: 0x21C }
  - { offset: 0x4D506, size: 0x8, addend: 0x0, symName: __ZN6fuzzer18MinimizeCrashInputERKNSt3__16vectorINS0_12basic_stringIcNS0_11char_traitsIcEENS0_9allocatorIcEEEENS5_IS7_EEEERKNS_14FuzzingOptionsE, symObjAddr: 0x11F0, symBinAddr: 0x100018CAC, symSize: 0xEEC }
  - { offset: 0x51FCE, size: 0x8, addend: 0x0, symName: __ZN6fuzzer7Command7addFlagERKNSt3__112basic_stringIcNS1_11char_traitsIcEENS1_9allocatorIcEEEES9_, symObjAddr: 0x20DC, symBinAddr: 0x100019B98, symSize: 0x1A8 }
  - { offset: 0x51FF3, size: 0x8, addend: 0x0, symName: __ZN6fuzzerL26GetDedupTokenFromCmdOutputERKNSt3__112basic_stringIcNS0_11char_traitsIcEENS0_9allocatorIcEEEE, symObjAddr: 0x267C, symBinAddr: 0x100019D40, symSize: 0x240 }
  - { offset: 0x52786, size: 0x8, addend: 0x0, symName: __ZN6fuzzer30MinimizeCrashInputInternalStepEPNS_6FuzzerEPNS_11InputCorpusE, symObjAddr: 0x28BC, symBinAddr: 0x100019F80, symSize: 0xFC }
  - { offset: 0x527A6, size: 0x8, addend: 0x0, symName: __ZN6fuzzer30MinimizeCrashInputInternalStepEPNS_6FuzzerEPNS_11InputCorpusE, symObjAddr: 0x28BC, symBinAddr: 0x100019F80, symSize: 0xFC }
  - { offset: 0x529CB, size: 0x8, addend: 0x0, symName: __ZN6fuzzer5MergeEPNS_6FuzzerERNS_14FuzzingOptionsERKNSt3__16vectorINS4_12basic_stringIcNS4_11char_traitsIcEENS4_9allocatorIcEEEENS9_ISB_EEEESF_PKc, symObjAddr: 0x29B8, symBinAddr: 0x10001A07C, symSize: 0x334 }
  - { offset: 0x529DC, size: 0x8, addend: 0x0, symName: __ZN6fuzzer5MergeEPNS_6FuzzerERNS_14FuzzingOptionsERKNSt3__16vectorINS4_12basic_stringIcNS4_11char_traitsIcEENS4_9allocatorIcEEEENS9_ISB_EEEESF_PKc, symObjAddr: 0x29B8, symBinAddr: 0x10001A07C, symSize: 0x334 }
  - { offset: 0x538D9, size: 0x8, addend: 0x0, symName: __ZN6fuzzer17AnalyzeDictionaryEPNS_6FuzzerERKNSt3__16vectorINS3_IhNS2_9allocatorIhEEEENS4_IS6_EEEERS8_, symObjAddr: 0x2CEC, symBinAddr: 0x10001A3B0, symSize: 0x698 }
  - { offset: 0x53945, size: 0x8, addend: 0x0, symName: __ZN6fuzzer17AnalyzeDictionaryEPNS_6FuzzerERKNSt3__16vectorINS3_IhNS2_9allocatorIhEEEENS4_IS6_EEEERS8_, symObjAddr: 0x2CEC, symBinAddr: 0x10001A3B0, symSize: 0x698 }
  - { offset: 0x5502F, size: 0x8, addend: 0x0, symName: '__ZNK6fuzzer7TracePC15CollectFeaturesIZNS_17AnalyzeDictionaryEPNS_6FuzzerERKNSt3__16vectorINS5_IhNS4_9allocatorIhEEEENS6_IS8_EEEERSA_E3$_0EEmT_', symObjAddr: 0x3384, symBinAddr: 0x10001AA48, symSize: 0x290 }
  - { offset: 0x55793, size: 0x8, addend: 0x0, symName: '__ZN6fuzzer18ForEachNonZeroByteIZNKS_7TracePC15CollectFeaturesIZNS_17AnalyzeDictionaryEPNS_6FuzzerERKNSt3__16vectorINS6_IhNS5_9allocatorIhEEEENS7_IS9_EEEERSB_E3$_0EEmT_EUlmmhE_EEmPKhSJ_mSG_', symObjAddr: 0x8F70, symBinAddr: 0x10001FD44, symSize: 0x3D8 }
  - { offset: 0x55CB4, size: 0x8, addend: 0x0, symName: __ZNSt3__16vectorImNS_9allocatorImEEE9push_backB8nn210108ERKm, symObjAddr: 0x9348, symBinAddr: 0x10002011C, symSize: 0xF8 }
  - { offset: 0x55CE8, size: 0x8, addend: 0x0, symName: '__ZN6fuzzer18ForEachNonZeroByteIZNKS_7TracePC15CollectFeaturesIZNS_17AnalyzeDictionaryEPNS_6FuzzerERKNSt3__16vectorINS6_IhNS5_9allocatorIhEEEENS7_IS9_EEEERSB_E3$_1EEmT_EUlmmhE_EEmPKhSJ_mSG_', symObjAddr: 0x9454, symBinAddr: 0x100020228, symSize: 0x3D8 }
  - { offset: 0x56209, size: 0x8, addend: 0x0, symName: __ZNSt3__16vectorINS_12basic_stringIcNS_11char_traitsIcEENS_9allocatorIcEEEENS4_IS6_EEE16__init_with_sizeB8nn210108IPPcSB_EEvT_T0_m, symObjAddr: 0x982C, symBinAddr: 0x100020600, symSize: 0x118 }
  - { offset: 0x5621D, size: 0x8, addend: 0x0, symName: __ZN6fuzzer14ParseSeedInutsEPKc, symObjAddr: 0x38A4, symBinAddr: 0x10001AF68, symSize: 0x49C }
  - { offset: 0x57770, size: 0x8, addend: 0x0, symName: __ZNSt3__16vectorINS_12basic_stringIcNS_11char_traitsIcEENS_9allocatorIcEEEENS4_IS6_EEE9push_backB8nn210108EOS6_, symObjAddr: 0x3D40, symBinAddr: 0x10001B404, symSize: 0x140 }
  - { offset: 0x57A2F, size: 0x8, addend: 0x0, symName: __ZN6fuzzer12FuzzerDriverEPiPPPcPFiPKhmE, symObjAddr: 0x3F00, symBinAddr: 0x10001B5C4, symSize: 0x1F54 }
  - { offset: 0x5E130, size: 0x8, addend: 0x0, symName: __ZN6fuzzerL23ValidateDirectoryExistsERKNSt3__112basic_stringIcNS0_11char_traitsIcEENS0_9allocatorIcEEEEb, symObjAddr: 0x5E54, symBinAddr: 0x10001D518, symSize: 0xBC }
  - { offset: 0x5E187, size: 0x8, addend: 0x0, symName: __ZN6fuzzerL23ValidateDirectoryExistsERKNSt3__112basic_stringIcNS0_11char_traitsIcEENS0_9allocatorIcEEEEb, symObjAddr: 0x5E54, symBinAddr: 0x10001D518, symSize: 0xBC }
  - { offset: 0x5E390, size: 0x8, addend: 0x0, symName: __ZN6fuzzerL11ReadCorporaERKNSt3__16vectorINS0_12basic_stringIcNS0_11char_traitsIcEENS0_9allocatorIcEEEENS5_IS7_EEEESB_, symObjAddr: 0x5F10, symBinAddr: 0x10001D5D4, symSize: 0x188 }
  - { offset: 0x5E41E, size: 0x8, addend: 0x0, symName: __ZN6fuzzerL11ReadCorporaERKNSt3__16vectorINS0_12basic_stringIcNS0_11char_traitsIcEENS0_9allocatorIcEEEENS5_IS7_EEEESB_, symObjAddr: 0x5F10, symBinAddr: 0x10001D5D4, symSize: 0x188 }
  - { offset: 0x5EAD1, size: 0x8, addend: 0x0, symName: __ZN6fuzzerL11PulseThreadEv, symObjAddr: 0x6CF4, symBinAddr: 0x10001DB68, symSize: 0x40 }
  - { offset: 0x5EBD5, size: 0x8, addend: 0x0, symName: __ZN6fuzzerL12WorkerThreadERKNS_7CommandEPNSt3__16atomicIjEEjPNS4_IbEE, symObjAddr: 0x6D34, symBinAddr: 0x10001DBA8, symSize: 0x2D0 }
  - { offset: 0x5F964, size: 0x8, addend: 0x0, symName: __ZN6fuzzerL9RssThreadEPNS_6FuzzerEm, symObjAddr: 0x764C, symBinAddr: 0x10001E4C0, symSize: 0x34 }
  - { offset: 0x7827D, size: 0x8, addend: 0x0, symName: __ZNSt3__111__introsortINS_17_ClassicAlgPolicyERNS_6__lessIvvEEPN6fuzzer9SizedFileELb0EEEvT1_S8_T0_NS_15iterator_traitsIS8_E15difference_typeEb, symObjAddr: 0x7A50, symBinAddr: 0x10001E824, symSize: 0x528 }
  - { offset: 0x79258, size: 0x8, addend: 0x0, symName: __ZNSt3__111__sift_downB8nn210108INS_17_ClassicAlgPolicyERNS_6__lessIvvEEPN6fuzzer9SizedFileEEEvT1_OT0_NS_15iterator_traitsIS8_E15difference_typeES8_, symObjAddr: 0x8B50, symBinAddr: 0x10001F924, symSize: 0x178 }
  - { offset: 0x79776, size: 0x8, addend: 0x0, symName: __ZNSt3__131__partition_with_equals_on_leftB8nn210108INS_17_ClassicAlgPolicyEPN6fuzzer9SizedFileERNS_6__lessIvvEEEET0_S8_S8_T1_, symObjAddr: 0x8598, symBinAddr: 0x10001F36C, symSize: 0x1AC }
  - { offset: 0x79F4F, size: 0x8, addend: 0x0, symName: __ZNSt3__132__partition_with_equals_on_rightB8nn210108INS_17_ClassicAlgPolicyEPN6fuzzer9SizedFileERNS_6__lessIvvEEEENS_4pairIT0_bEES9_S9_T1_, symObjAddr: 0x8744, symBinAddr: 0x10001F518, symSize: 0x1B8 }
  - { offset: 0x7A737, size: 0x8, addend: 0x0, symName: __ZNSt3__127__insertion_sort_incompleteB8nn210108INS_17_ClassicAlgPolicyERNS_6__lessIvvEEPN6fuzzer9SizedFileEEEbT1_S8_T0_, symObjAddr: 0x88FC, symBinAddr: 0x10001F6D0, symSize: 0x254 }
  - { offset: 0x7F080, size: 0x8, addend: 0x0, symName: __ZNSt3__19remove_ifB8nn210108INS_11__wrap_iterIPNS_12basic_stringIcNS_11char_traitsIcEENS_9allocatorIcEEEEEEZN6fuzzer7Command10removeFlagERKS7_EUlSD_E_EET_SF_SF_T0_, symObjAddr: 0x6164, symBinAddr: 0x10001D7E4, symSize: 0x134 }
  - { offset: 0x7F774, size: 0x8, addend: 0x0, symName: __ZNSt3__16removeB8nn210108INS_11__wrap_iterIPNS_12basic_stringIcNS_11char_traitsIcEENS_9allocatorIcEEEEEES7_EET_SA_SA_RKT0_, symObjAddr: 0x62C8, symBinAddr: 0x10001D918, symSize: 0x140 }
  - { offset: 0x85178, size: 0x8, addend: 0x0, symName: __ZNSt3__16removeB8nn210108INS_11__wrap_iterIPNS_12basic_stringIcNS_11char_traitsIcEENS_9allocatorIcEEEEEES7_EET_SA_SA_RKT0_, symObjAddr: 0x62C8, symBinAddr: 0x10001D918, symSize: 0x140 }
  - { offset: 0x85B7C, size: 0x8, addend: 0x0, symName: __ZNSt3__114__thread_proxyB8nn210108INS_5tupleIJNS_10unique_ptrINS_15__thread_structENS_14default_deleteIS3_EEEEPFvvEEEEEEPvSA_, symObjAddr: 0x7004, symBinAddr: 0x10001DE78, symSize: 0x60 }
  - { offset: 0x860FE, size: 0x8, addend: 0x0, symName: __ZNSt3__114__thread_proxyB8nn210108INS_5tupleIJNS_10unique_ptrINS_15__thread_structENS_14default_deleteIS3_EEEEPFvRKN6fuzzer7CommandEPNS_6atomicIjEEjPNSB_IbEEENS_17reference_wrapperIS8_EESD_jSF_EEEEEPvSL_, symObjAddr: 0x72F8, symBinAddr: 0x10001E16C, symSize: 0x6C }
  - { offset: 0x866C2, size: 0x8, addend: 0x0, symName: __ZNSt3__114__thread_proxyB8nn210108INS_5tupleIJNS_10unique_ptrINS_15__thread_structENS_14default_deleteIS3_EEEEPFvPN6fuzzer6FuzzerEmES9_mEEEEEPvSD_, symObjAddr: 0x7680, symBinAddr: 0x10001E4F4, symSize: 0x64 }
  - { offset: 0x86D94, size: 0x8, addend: 0x0, symName: __ZNSt3__17__sort3B8nn210108INS_17_ClassicAlgPolicyERNS_6__lessIvvEEPN6fuzzer9SizedFileETnNS_9enable_ifIXnt21__use_branchless_sortIT0_T1_EEiE4typeELi0EEEbSA_SA_SA_S9_, symObjAddr: 0x7F78, symBinAddr: 0x10001ED4C, symSize: 0x298 }
  - { offset: 0x87ACA, size: 0x8, addend: 0x0, symName: __ZNSt3__17__sort5B8nn210108INS_17_ClassicAlgPolicyERNS_6__lessIvvEEPN6fuzzer9SizedFileETnNS_9enable_ifIXnt21__use_branchless_sortIT0_T1_EEiE4typeELi0EEEvSA_SA_SA_SA_SA_S9_, symObjAddr: 0x83A8, symBinAddr: 0x10001F17C, symSize: 0x1F0 }
  - { offset: 0x887BB, size: 0x8, addend: 0x0, symName: __ZNSt3__17__sort4B8nn210108INS_17_ClassicAlgPolicyERNS_6__lessIvvEEPN6fuzzer9SizedFileETnNS_9enable_ifIXnt21__use_branchless_sortIT0_T1_EEiE4typeELi0EEEvSA_SA_SA_SA_S9_, symObjAddr: 0x8210, symBinAddr: 0x10001EFE4, symSize: 0x198 }
  - { offset: 0x89185, size: 0x8, addend: 0x0, symName: __ZNSt3__110__pop_heapB8nn210108INS_17_ClassicAlgPolicyENS_6__lessIvvEEPN6fuzzer9SizedFileEEEvT1_S7_RT0_NS_15iterator_traitsIS7_E15difference_typeE, symObjAddr: 0x8CC8, symBinAddr: 0x10001FA9C, symSize: 0x24C }
  - { offset: 0x8AFCA, size: 0x8, addend: 0x0, symName: __ZNSt3__19remove_ifB8nn210108INS_11__wrap_iterIPNS_12basic_stringIcNS_11char_traitsIcEENS_9allocatorIcEEEEEEZN6fuzzer7Command10removeFlagERKS7_EUlSD_E_EET_SF_SF_T0_, symObjAddr: 0x6164, symBinAddr: 0x10001D7E4, symSize: 0x134 }
  - { offset: 0x8D365, size: 0x8, addend: 0x0, symName: ___libfuzzer_is_present, symObjAddr: 0x0, symBinAddr: 0x100017ABC, symSize: 0x4 }
  - { offset: 0x8D805, size: 0x8, addend: 0x0, symName: __ZN6fuzzerL11PulseThreadEv, symObjAddr: 0x6CF4, symBinAddr: 0x10001DB68, symSize: 0x40 }
  - { offset: 0x8DA78, size: 0x8, addend: 0x0, symName: __ZNSt3__112basic_stringIcNS_11char_traitsIcEENS_9allocatorIcEEEC1B8nn210108ILi0EEEPKc, symObjAddr: 0x3A8, symBinAddr: 0x100017E64, symSize: 0xA8 }
  - { offset: 0x8DCF5, size: 0x8, addend: 0x0, symName: __ZN6fuzzer17CleanseCrashInputERKNSt3__16vectorINS0_12basic_stringIcNS0_11char_traitsIcEENS0_9allocatorIcEEEENS5_IS7_EEEERKNS_14FuzzingOptionsE, symObjAddr: 0x450, symBinAddr: 0x100017F0C, symSize: 0x9D4 }
  - { offset: 0x8E6B0, size: 0x8, addend: 0x0, symName: __ZNSt3__16vectorINS_12basic_stringIcNS_11char_traitsIcEENS_9allocatorIcEEEENS4_IS6_EEE24__emplace_back_slow_pathIJRKS6_EEEPS6_DpOT_, symObjAddr: 0x78F8, symBinAddr: 0x10001E6E0, symSize: 0x130 }
  - { offset: 0x8E6BB, size: 0x8, addend: 0x0, symName: __ZN6fuzzer7Command10removeFlagERKNSt3__112basic_stringIcNS1_11char_traitsIcEENS1_9allocatorIcEEEE, symObjAddr: 0xE24, symBinAddr: 0x1000188E0, symSize: 0x21C }
  - { offset: 0x8EFB2, size: 0x8, addend: 0x0, symName: __ZN6fuzzer7Command14removeArgumentERKNSt3__112basic_stringIcNS1_11char_traitsIcEENS1_9allocatorIcEEEE, symObjAddr: 0x1040, symBinAddr: 0x100018AFC, symSize: 0x1B0 }
  - { offset: 0x8EFE8, size: 0x8, addend: 0x0, symName: __ZN6fuzzer7Command14removeArgumentERKNSt3__112basic_stringIcNS1_11char_traitsIcEENS1_9allocatorIcEEEE, symObjAddr: 0x1040, symBinAddr: 0x100018AFC, symSize: 0x1B0 }
  - { offset: 0x8F61A, size: 0x8, addend: 0x0, symName: __ZN6fuzzer18MinimizeCrashInputERKNSt3__16vectorINS0_12basic_stringIcNS0_11char_traitsIcEENS0_9allocatorIcEEEENS5_IS7_EEEERKNS_14FuzzingOptionsE, symObjAddr: 0x11F0, symBinAddr: 0x100018CAC, symSize: 0xEEC }
  - { offset: 0x8FBC7, size: 0x8, addend: 0x0, symName: __ZNSt3__16vectorINS_12basic_stringIcNS_11char_traitsIcEENS_9allocatorIcEEEENS4_IS6_EEE20__throw_out_of_rangeB8nn210108Ev, symObjAddr: 0x7A3C, symBinAddr: 0x10001E810, symSize: 0x14 }
  - { offset: 0x8FBDF, size: 0x8, addend: 0x0, symName: __ZNSt3__111__introsortINS_17_ClassicAlgPolicyERNS_6__lessIvvEEPN6fuzzer9SizedFileELb0EEEvT1_S8_T0_NS_15iterator_traitsIS8_E15difference_typeEb, symObjAddr: 0x7A50, symBinAddr: 0x10001E824, symSize: 0x528 }
  - { offset: 0x8FE6B, size: 0x8, addend: 0x0, symName: __ZN6fuzzer7Command7addFlagERKNSt3__112basic_stringIcNS1_11char_traitsIcEENS1_9allocatorIcEEEES9_, symObjAddr: 0x20DC, symBinAddr: 0x100019B98, symSize: 0x1A8 }
  - { offset: 0x90DD5, size: 0x8, addend: 0x0, symName: __ZN6fuzzerL26GetDedupTokenFromCmdOutputERKNSt3__112basic_stringIcNS0_11char_traitsIcEENS0_9allocatorIcEEEE, symObjAddr: 0x267C, symBinAddr: 0x100019D40, symSize: 0x240 }
  - { offset: 0x9154D, size: 0x8, addend: 0x0, symName: __ZNSt3__16__treeIjNS_4lessIjEENS_9allocatorIjEEE7destroyEPNS_11__tree_nodeIjPvEE, symObjAddr: 0x8F14, symBinAddr: 0x10001FCE8, symSize: 0x48 }
  - { offset: 0x92215, size: 0x8, addend: 0x0, symName: '__ZNK6fuzzer7TracePC15CollectFeaturesIZNS_17AnalyzeDictionaryEPNS_6FuzzerERKNSt3__16vectorINS5_IhNS4_9allocatorIhEEEENS6_IS8_EEEERSA_E3$_0EEmT_', symObjAddr: 0x3384, symBinAddr: 0x10001AA48, symSize: 0x290 }
  - { offset: 0x928B4, size: 0x8, addend: 0x0, symName: '__ZNK6fuzzer7TracePC15CollectFeaturesIZNS_17AnalyzeDictionaryEPNS_6FuzzerERKNSt3__16vectorINS5_IhNS4_9allocatorIhEEEENS6_IS8_EEEERSA_E3$_1EEmT_', symObjAddr: 0x3614, symBinAddr: 0x10001ACD8, symSize: 0x290 }
  - { offset: 0x92905, size: 0x8, addend: 0x0, symName: '__ZNK6fuzzer7TracePC15CollectFeaturesIZNS_17AnalyzeDictionaryEPNS_6FuzzerERKNSt3__16vectorINS5_IhNS4_9allocatorIhEEEENS6_IS8_EEEERSA_E3$_1EEmT_', symObjAddr: 0x3614, symBinAddr: 0x10001ACD8, symSize: 0x290 }
  - { offset: 0x92FA4, size: 0x8, addend: 0x0, symName: __ZN6fuzzer14ParseSeedInutsEPKc, symObjAddr: 0x38A4, symBinAddr: 0x10001AF68, symSize: 0x49C }
  - { offset: 0x92FFF, size: 0x8, addend: 0x0, symName: __ZNSt3__16vectorINS_12basic_stringIcNS_11char_traitsIcEENS_9allocatorIcEEEENS4_IS6_EEE20__throw_out_of_rangeB8nn210108Ev, symObjAddr: 0x7A3C, symBinAddr: 0x10001E810, symSize: 0x14 }
  - { offset: 0x9300A, size: 0x8, addend: 0x0, symName: __ZNSt3__16vectorIiNS_9allocatorIiEEE20__throw_length_errorB8nn210108Ev, symObjAddr: 0x8F5C, symBinAddr: 0x10001FD30, symSize: 0x14 }
  - { offset: 0x93022, size: 0x8, addend: 0x0, symName: '__ZN6fuzzer18ForEachNonZeroByteIZNKS_7TracePC15CollectFeaturesIZNS_17AnalyzeDictionaryEPNS_6FuzzerERKNSt3__16vectorINS6_IhNS5_9allocatorIhEEEENS7_IS9_EEEERSB_E3$_0EEmT_EUlmmhE_EEmPKhSJ_mSG_', symObjAddr: 0x8F70, symBinAddr: 0x10001FD44, symSize: 0x3D8 }
  - { offset: 0x9345E, size: 0x8, addend: 0x0, symName: __ZNSt3__16vectorImNS_9allocatorImEEE9push_backB8nn210108ERKm, symObjAddr: 0x9348, symBinAddr: 0x10002011C, symSize: 0xF8 }
  - { offset: 0x938B0, size: 0x8, addend: 0x0, symName: __ZNSt3__16vectorImNS_9allocatorImEEE20__throw_length_errorB8nn210108Ev, symObjAddr: 0x9440, symBinAddr: 0x100020214, symSize: 0x14 }
  - { offset: 0x938BB, size: 0x8, addend: 0x0, symName: __ZNSt3__16vectorImNS_9allocatorImEEE20__throw_length_errorB8nn210108Ev, symObjAddr: 0x9440, symBinAddr: 0x100020214, symSize: 0x14 }
  - { offset: 0x938D3, size: 0x8, addend: 0x0, symName: '__ZN6fuzzer18ForEachNonZeroByteIZNKS_7TracePC15CollectFeaturesIZNS_17AnalyzeDictionaryEPNS_6FuzzerERKNSt3__16vectorINS6_IhNS5_9allocatorIhEEEENS7_IS9_EEEERSB_E3$_1EEmT_EUlmmhE_EEmPKhSJ_mSG_', symObjAddr: 0x9454, symBinAddr: 0x100020228, symSize: 0x3D8 }
  - { offset: 0x93D23, size: 0x8, addend: 0x0, symName: __ZNSt3__16vectorINS_12basic_stringIcNS_11char_traitsIcEENS_9allocatorIcEEEENS4_IS6_EEE9push_backB8nn210108EOS6_, symObjAddr: 0x3D40, symBinAddr: 0x10001B404, symSize: 0x140 }
  - { offset: 0x9422C, size: 0x8, addend: 0x0, symName: __ZNSt3__16vectorINS_12basic_stringIcNS_11char_traitsIcEENS_9allocatorIcEEEENS4_IS6_EEED1B8nn210108Ev, symObjAddr: 0x3E80, symBinAddr: 0x10001B544, symSize: 0x80 }
  - { offset: 0x9437E, size: 0x8, addend: 0x0, symName: __ZNSt3__16vectorINS_12basic_stringIcNS_11char_traitsIcEENS_9allocatorIcEEEENS4_IS6_EEED1B8nn210108Ev, symObjAddr: 0x3E80, symBinAddr: 0x10001B544, symSize: 0x80 }
  - { offset: 0x95F95, size: 0x8, addend: 0x0, symName: __ZNSt3__16vectorINS_12basic_stringIcNS_11char_traitsIcEENS_9allocatorIcEEEENS4_IS6_EEE16__init_with_sizeB8nn210108IPPcSB_EEvT_T0_m, symObjAddr: 0x982C, symBinAddr: 0x100020600, symSize: 0x118 }
  - { offset: 0x964A3, size: 0x8, addend: 0x0, symName: __ZNSt3__16vectorINS_12basic_stringIcNS_11char_traitsIcEENS_9allocatorIcEEEENS4_IS6_EEE24__emplace_back_slow_pathIJRKS6_EEEPS6_DpOT_, symObjAddr: 0x78F8, symBinAddr: 0x10001E6E0, symSize: 0x130 }
  - { offset: 0x9692B, size: 0x8, addend: 0x0, symName: __ZNSt3__16vectorINS_6threadENS_9allocatorIS1_EEE8__appendEm, symObjAddr: 0x7064, symBinAddr: 0x10001DED8, symSize: 0x280 }
  - { offset: 0x96F18, size: 0x8, addend: 0x0, symName: __ZNSt3__16vectorINS_6threadENS_9allocatorIS1_EEE20__throw_length_errorB8nn210108Ev, symObjAddr: 0x72E4, symBinAddr: 0x10001E158, symSize: 0x14 }
  - { offset: 0x96F23, size: 0x8, addend: 0x0, symName: __ZN6fuzzer11InputCorpusC2ERKNSt3__112basic_stringIcNS1_11char_traitsIcEENS1_9allocatorIcEEEENS_15EntropicOptionsE, symObjAddr: 0x74BC, symBinAddr: 0x10001E330, symSize: 0x190 }
  - { offset: 0x97841, size: 0x8, addend: 0x0, symName: __ZN6fuzzer14FuzzingOptionsD2Ev, symObjAddr: 0x76E4, symBinAddr: 0x10001E558, symSize: 0x188 }
  - { offset: 0x983C8, size: 0x8, addend: 0x0, symName: __ZNSt3__16vectorINS0_IhNS_9allocatorIhEEEENS1_IS3_EEED1B8nn210108Ev, symObjAddr: 0x6098, symBinAddr: 0x10001D75C, symSize: 0x84 }
  - { offset: 0x9888B, size: 0x8, addend: 0x0, symName: __ZNSt3__16vectorIN6fuzzer9SizedFileENS_9allocatorIS2_EEE24__emplace_back_slow_pathIJS2_EEEPS2_DpOT_, symObjAddr: 0x7364, symBinAddr: 0x10001E1D8, symSize: 0x144 }
  - { offset: 0x98F9F, size: 0x8, addend: 0x0, symName: __ZNSt3__16vectorIN6fuzzer9SizedFileENS_9allocatorIS2_EEE20__throw_length_errorB8nn210108Ev, symObjAddr: 0x74A8, symBinAddr: 0x10001E31C, symSize: 0x14 }
  - { offset: 0x98FB7, size: 0x8, addend: 0x0, symName: _LLVMFuzzerRunDriver, symObjAddr: 0x611C, symBinAddr: 0x10001D7E0, symSize: 0x4 }
  - { offset: 0x99003, size: 0x8, addend: 0x0, symName: _LLVMFuzzerRunDriver, symObjAddr: 0x611C, symBinAddr: 0x10001D7E0, symSize: 0x4 }
  - { offset: 0x997F4, size: 0x8, addend: 0x0, symName: __ZN6fuzzer7CommandC2ERKS0_, symObjAddr: 0x6880, symBinAddr: 0x10001DA58, symSize: 0x110 }
  - { offset: 0x9990A, size: 0x8, addend: 0x0, symName: __ZN6fuzzer7CommandC2ERKS0_, symObjAddr: 0x6880, symBinAddr: 0x10001DA58, symSize: 0x110 }
  - { offset: 0x9A8B5, size: 0x8, addend: 0x0, symName: __ZNSt3__16vectorINS_6threadENS_9allocatorIS1_EEE20__throw_length_errorB8nn210108Ev, symObjAddr: 0x72E4, symBinAddr: 0x10001E158, symSize: 0x14 }
  - { offset: 0x9A8CD, size: 0x8, addend: 0x0, symName: __ZNSt3__114__thread_proxyB8nn210108INS_5tupleIJNS_10unique_ptrINS_15__thread_structENS_14default_deleteIS3_EEEEPFvRKN6fuzzer7CommandEPNS_6atomicIjEEjPNSB_IbEEENS_17reference_wrapperIS8_EESD_jSF_EEEEEPvSL_, symObjAddr: 0x72F8, symBinAddr: 0x10001E16C, symSize: 0x6C }
  - { offset: 0x9AB8C, size: 0x8, addend: 0x0, symName: __ZNSt3__16vectorIN6fuzzer9SizedFileENS_9allocatorIS2_EEE20__throw_length_errorB8nn210108Ev, symObjAddr: 0x74A8, symBinAddr: 0x10001E31C, symSize: 0x14 }
  - { offset: 0x9ABA4, size: 0x8, addend: 0x0, symName: __ZN6fuzzer11InputCorpusC2ERKNSt3__112basic_stringIcNS1_11char_traitsIcEENS1_9allocatorIcEEEENS_15EntropicOptionsE, symObjAddr: 0x74BC, symBinAddr: 0x10001E330, symSize: 0x190 }
  - { offset: 0x9B547, size: 0x8, addend: 0x0, symName: __GLOBAL__sub_I_FuzzerDriver.cpp, symObjAddr: 0x9988, symBinAddr: 0x100020718, symSize: 0x1C }
  - { offset: 0x9B55F, size: 0x8, addend: 0x0, symName: __GLOBAL__sub_I_FuzzerDriver.cpp, symObjAddr: 0x9988, symBinAddr: 0x100020718, symSize: 0x1C }
  - { offset: 0x9D3D6, size: 0x8, addend: 0x0, symName: __ZN6fuzzer17ExternalFunctionsC2Ev, symObjAddr: 0x0, symBinAddr: 0x100020734, symSize: 0x2F4 }
  - { offset: 0x9D9F8, size: 0x8, addend: 0x0, symName: __ZN6fuzzer17ExternalFunctionsC2Ev, symObjAddr: 0x0, symBinAddr: 0x100020734, symSize: 0x2F4 }
  - { offset: 0x9E0C6, size: 0x8, addend: 0x0, symName: __ZN6fuzzer17ExternalFunctionsC1Ev, symObjAddr: 0x2F4, symBinAddr: 0x100020A28, symSize: 0x4 }
  - { offset: 0x9E0F4, size: 0x8, addend: 0x0, symName: __ZN6fuzzer17ExternalFunctionsC1Ev, symObjAddr: 0x2F4, symBinAddr: 0x100020A28, symSize: 0x4 }
  - { offset: 0xA0D04, size: 0x8, addend: 0x0, symName: __ZN6fuzzer18ExtraCountersBeginEv, symObjAddr: 0x0, symBinAddr: 0x100020A2C, symSize: 0x8 }
  - { offset: 0xA0D17, size: 0x8, addend: 0x0, symName: __ZN6fuzzer18ExtraCountersBeginEv, symObjAddr: 0x0, symBinAddr: 0x100020A2C, symSize: 0x8 }
  - { offset: 0xA0D35, size: 0x8, addend: 0x0, symName: __ZN6fuzzer16ExtraCountersEndEv, symObjAddr: 0x8, symBinAddr: 0x100020A34, symSize: 0x8 }
  - { offset: 0xA0D53, size: 0x8, addend: 0x0, symName: __ZN6fuzzer18ClearExtraCountersEv, symObjAddr: 0x10, symBinAddr: 0x100020A3C, symSize: 0x4 }
  - { offset: 0xA0ED5, size: 0x8, addend: 0x0, symName: __ZN6fuzzer12WorkerThreadEPNS_8JobQueueES1_, symObjAddr: 0x0, symBinAddr: 0x100020A40, symSize: 0xC4 }
  - { offset: 0xB0169, size: 0x8, addend: 0x0, symName: __ZNSt3__1rsB8nn210108IcNS_11char_traitsIcEENS_9allocatorIcEEEERNS_13basic_istreamIT_T0_EES9_RNS_12basic_stringIS6_S7_T1_EE, symObjAddr: 0x7100, symBinAddr: 0x1000263B8, symSize: 0x1D0 }
  - { offset: 0xBB584, size: 0x8, addend: 0x0, symName: __ZNSt3__127__tree_balance_after_insertB8nn210108IPNS_16__tree_node_baseIPvEEEEvT_S5_, symObjAddr: 0x621C, symBinAddr: 0x100025D3C, symSize: 0x1D4 }
  - { offset: 0xBE0EC, size: 0x8, addend: 0x0, symName: __ZNK6fuzzer7Command12getFlagValueERKNSt3__112basic_stringIcNS1_11char_traitsIcEENS1_9allocatorIcEEEE, symObjAddr: 0x6C58, symBinAddr: 0x100025F10, symSize: 0x2A8 }
  - { offset: 0xC0C97, size: 0x8, addend: 0x0, symName: __ZNSt3__114__thread_proxyB8nn210108INS_5tupleIJNS_10unique_ptrINS_15__thread_structENS_14default_deleteIS3_EEEEPFvPN6fuzzer8JobQueueES9_ES9_S9_EEEEEPvSD_, symObjAddr: 0x8F60, symBinAddr: 0x100026B24, symSize: 0x64 }
  - { offset: 0xC22F5, size: 0x8, addend: 0x0, symName: __ZN6fuzzer12WorkerThreadEPNS_8JobQueueES1_, symObjAddr: 0x0, symBinAddr: 0x100020A40, symSize: 0xC4 }
  - { offset: 0xC26E1, size: 0x8, addend: 0x0, symName: __ZN6fuzzer12FuzzWithForkERNS_6RandomERKNS_14FuzzingOptionsERKNSt3__16vectorINS5_12basic_stringIcNS5_11char_traitsIcEENS5_9allocatorIcEEEENSA_ISC_EEEESG_i, symObjAddr: 0x1A4, symBinAddr: 0x100020BE4, symSize: 0x1724 }
  - { offset: 0xC8E28, size: 0x8, addend: 0x0, symName: __ZNSt3__13setIjNS_4lessIjEENS_9allocatorIjEEE6insertB8nn210108INS_21__tree_const_iteratorIjPNS_11__tree_nodeIjPvEElEEEEvT_SD_, symObjAddr: 0x18C8, symBinAddr: 0x100022308, symSize: 0x104 }
  - { offset: 0xCA8F1, size: 0x8, addend: 0x0, symName: __ZN6fuzzer8JobQueue3PopEv, symObjAddr: 0xC4, symBinAddr: 0x100020B04, symSize: 0xE0 }
  - { offset: 0xCABFF, size: 0x8, addend: 0x0, symName: __ZNSt3__15dequeIPN6fuzzer7FuzzJobENS_9allocatorIS3_EEE19__add_back_capacityEv, symObjAddr: 0x4434, symBinAddr: 0x100024BA8, symSize: 0x2F0 }
  - { offset: 0xCB7A6, size: 0x8, addend: 0x0, symName: __ZNSt3__114__split_bufferIPPN6fuzzer7FuzzJobENS_9allocatorIS4_EEE12emplace_backIJRS4_EEEvDpOT_, symObjAddr: 0x4724, symBinAddr: 0x100024E98, symSize: 0x180 }
  - { offset: 0xCE037, size: 0x8, addend: 0x0, symName: __ZNSt3__16vectorINS_12basic_stringIcNS_11char_traitsIcEENS_9allocatorIcEEEENS4_IS6_EEE18__assign_with_sizeB8nn210108IPS6_SA_EEvT_T0_l, symObjAddr: 0x7468, symBinAddr: 0x1000266F8, symSize: 0x28C }
  - { offset: 0xCED6A, size: 0x8, addend: 0x0, symName: __ZNSt3__13setIjNS_4lessIjEENS_9allocatorIjEEE6insertB8nn210108INS_21__tree_const_iteratorIjPNS_11__tree_nodeIjPvEElEEEEvT_SD_, symObjAddr: 0x18C8, symBinAddr: 0x100022308, symSize: 0x104 }
  - { offset: 0xCEDB2, size: 0x8, addend: 0x0, symName: __ZNSt3__13setIjNS_4lessIjEENS_9allocatorIjEEE6insertB8nn210108INS_21__tree_const_iteratorIjPNS_11__tree_nodeIjPvEElEEEEvT_SD_, symObjAddr: 0x18C8, symBinAddr: 0x100022308, symSize: 0x104 }
  - { offset: 0xCF195, size: 0x8, addend: 0x0, symName: __ZN6fuzzer9GlobalEnv12CreateNewJobEm, symObjAddr: 0x19CC, symBinAddr: 0x10002240C, symSize: 0x16C8 }
  - { offset: 0xD6478, size: 0x8, addend: 0x0, symName: '__ZZN6fuzzer12FuzzWithForkERNS_6RandomERKNS_14FuzzingOptionsERKNSt3__16vectorINS5_12basic_stringIcNS5_11char_traitsIcEENS5_9allocatorIcEEEENSA_ISC_EEEESG_iENK3$_0clEv', symObjAddr: 0x3094, symBinAddr: 0x100023AD4, symSize: 0x19C }
  - { offset: 0xD6483, size: 0x8, addend: 0x0, symName: __ZN6fuzzer7FuzzJobD2Ev, symObjAddr: 0x8FD8, symBinAddr: 0x100026B88, symSize: 0x17C }
  - { offset: 0xD6E02, size: 0x8, addend: 0x0, symName: __ZN6fuzzer9GlobalEnv14RunOneMergeJobEPNS_7FuzzJobE, symObjAddr: 0x3230, symBinAddr: 0x100023C70, symSize: 0xEF4 }
  - { offset: 0xDAE23, size: 0x8, addend: 0x0, symName: '__ZZN6fuzzer12FuzzWithForkERNS_6RandomERKNS_14FuzzingOptionsERKNSt3__16vectorINS5_12basic_stringIcNS5_11char_traitsIcEENS5_9allocatorIcEEEENSA_ISC_EEEESG_iENK3$_0clEv', symObjAddr: 0x3094, symBinAddr: 0x100023AD4, symSize: 0x19C }
  - { offset: 0xDB6B7, size: 0x8, addend: 0x0, symName: __ZNSt3__16vectorINS_12basic_stringIcNS_11char_traitsIcEENS_9allocatorIcEEEENS4_IS6_EEE18__assign_with_sizeB8nn210108IPS6_SA_EEvT_T0_l, symObjAddr: 0x7468, symBinAddr: 0x1000266F8, symSize: 0x28C }
  - { offset: 0xDB6C2, size: 0x8, addend: 0x0, symName: __ZNK6fuzzer9GlobalEnv26secondsSinceProcessStartUpEv, symObjAddr: 0x43F0, symBinAddr: 0x100024B64, symSize: 0x44 }
  - { offset: 0xDB77F, size: 0x8, addend: 0x0, symName: __ZN6fuzzer7FuzzJobD2Ev, symObjAddr: 0x8FD8, symBinAddr: 0x100026B88, symSize: 0x17C }
  - { offset: 0xDBAA1, size: 0x8, addend: 0x0, symName: __ZNSt3__16__treeIjNS_4lessIjEENS_9allocatorIjEEE12__find_equalIjEERPNS_16__tree_node_baseIPvEENS_21__tree_const_iteratorIjPNS_11__tree_nodeIjS8_EElEERPNS_15__tree_end_nodeISA_EESB_RKT_, symObjAddr: 0x8DC0, symBinAddr: 0x100026984, symSize: 0x1A0 }
  - { offset: 0xDBB07, size: 0x8, addend: 0x0, symName: __ZNSt3__16__treeIjNS_4lessIjEENS_9allocatorIjEEE12__find_equalIjEERPNS_16__tree_node_baseIPvEENS_21__tree_const_iteratorIjPNS_11__tree_nodeIjS8_EElEERPNS_15__tree_end_nodeISA_EESB_RKT_, symObjAddr: 0x8DC0, symBinAddr: 0x100026984, symSize: 0x1A0 }
  - { offset: 0xDBB25, size: 0x8, addend: 0x0, symName: __ZNSt3__16__treeIjNS_4lessIjEENS_9allocatorIjEEE12__find_equalIjEERPNS_16__tree_node_baseIPvEENS_21__tree_const_iteratorIjPNS_11__tree_nodeIjS8_EElEERPNS_15__tree_end_nodeISA_EESB_RKT_, symObjAddr: 0x8DC0, symBinAddr: 0x100026984, symSize: 0x1A0 }
  - { offset: 0xDD21F, size: 0x8, addend: 0x0, symName: __ZN6fuzzer9GlobalEnv8StopFileEv, symObjAddr: 0x5138, symBinAddr: 0x100025324, symSize: 0xF4 }
  - { offset: 0xDD22A, size: 0x8, addend: 0x0, symName: __ZN6fuzzer9GlobalEnv8StopFileEv, symObjAddr: 0x5138, symBinAddr: 0x100025324, symSize: 0xF4 }
  - { offset: 0xDD5E0, size: 0x8, addend: 0x0, symName: __ZNK6fuzzer7Command7hasFlagERKNSt3__112basic_stringIcNS1_11char_traitsIcEENS1_9allocatorIcEEEE, symObjAddr: 0x522C, symBinAddr: 0x100025418, symSize: 0x1A8 }
  - { offset: 0xDD5EB, size: 0x8, addend: 0x0, symName: __ZNK6fuzzer7Command7hasFlagERKNSt3__112basic_stringIcNS1_11char_traitsIcEENS1_9allocatorIcEEEE, symObjAddr: 0x522C, symBinAddr: 0x100025418, symSize: 0x1A8 }
  - { offset: 0xDDDF5, size: 0x8, addend: 0x0, symName: __ZN6fuzzer9GlobalEnv10CollectDFTERKNSt3__112basic_stringIcNS1_11char_traitsIcEENS1_9allocatorIcEEEE, symObjAddr: 0x53D4, symBinAddr: 0x1000255C0, symSize: 0x570 }
  - { offset: 0xDDE00, size: 0x8, addend: 0x0, symName: __ZN6fuzzer9GlobalEnv10CollectDFTERKNSt3__112basic_stringIcNS1_11char_traitsIcEENS1_9allocatorIcEEEE, symObjAddr: 0x53D4, symBinAddr: 0x1000255C0, symSize: 0x570 }
  - { offset: 0xE1355, size: 0x8, addend: 0x0, symName: __ZNSt3__16vectorIN6fuzzer9SizedFileENS_9allocatorIS2_EEE24__emplace_back_slow_pathIJRKS2_EEEPS2_DpOT_, symObjAddr: 0x72D0, symBinAddr: 0x100026588, symSize: 0x170 }
  - { offset: 0xE1AB6, size: 0x8, addend: 0x0, symName: __ZNK6fuzzer7Command12getFlagValueERKNSt3__112basic_stringIcNS1_11char_traitsIcEENS1_9allocatorIcEEEE, symObjAddr: 0x6C58, symBinAddr: 0x100025F10, symSize: 0x2A8 }
  - { offset: 0xE2752, size: 0x8, addend: 0x0, symName: __ZNSt3__16vectorImNS_9allocatorImEEE6insertENS_11__wrap_iterIPKmEERS5_, symObjAddr: 0x6F00, symBinAddr: 0x1000261B8, symSize: 0x200 }
  - { offset: 0xE275D, size: 0x8, addend: 0x0, symName: __ZNSt3__16vectorImNS_9allocatorImEEE6insertENS_11__wrap_iterIPKmEERS5_, symObjAddr: 0x6F00, symBinAddr: 0x1000261B8, symSize: 0x200 }
  - { offset: 0xE2FC3, size: 0x8, addend: 0x0, symName: __ZNSt3__1rsB8nn210108IcNS_11char_traitsIcEENS_9allocatorIcEEEERNS_13basic_istreamIT_T0_EES9_RNS_12basic_stringIS6_S7_T1_EE, symObjAddr: 0x7100, symBinAddr: 0x1000263B8, symSize: 0x1D0 }
  - { offset: 0xE3B2D, size: 0x8, addend: 0x0, symName: __ZNSt3__114__split_bufferIPPN6fuzzer7FuzzJobENS_9allocatorIS4_EEE12emplace_backIJRS4_EEEvDpOT_, symObjAddr: 0x4724, symBinAddr: 0x100024E98, symSize: 0x180 }
  - { offset: 0xE400E, size: 0x8, addend: 0x0, symName: __ZNSt3__114__split_bufferIPPN6fuzzer7FuzzJobENS_9allocatorIS4_EEE12emplace_backIJS4_EEEvDpOT_, symObjAddr: 0x48A4, symBinAddr: 0x100025018, symSize: 0x180 }
  - { offset: 0xE4026, size: 0x8, addend: 0x0, symName: __ZNSt3__114__split_bufferIPPN6fuzzer7FuzzJobENS_9allocatorIS4_EEE12emplace_backIJS4_EEEvDpOT_, symObjAddr: 0x48A4, symBinAddr: 0x100025018, symSize: 0x180 }
  - { offset: 0xE4507, size: 0x8, addend: 0x0, symName: __ZNSt3__114__split_bufferIPPN6fuzzer7FuzzJobENS_9allocatorIS4_EEE13emplace_frontIJS4_EEEvDpOT_, symObjAddr: 0x4A24, symBinAddr: 0x100025198, symSize: 0x18C }
  - { offset: 0xE451F, size: 0x8, addend: 0x0, symName: __ZNSt3__114__split_bufferIPPN6fuzzer7FuzzJobENS_9allocatorIS4_EEE13emplace_frontIJS4_EEEvDpOT_, symObjAddr: 0x4A24, symBinAddr: 0x100025198, symSize: 0x18C }
  - { offset: 0xE4D9F, size: 0x8, addend: 0x0, symName: __ZNSt3__16__treeINS_12basic_stringIcNS_11char_traitsIcEENS_9allocatorIcEEEENS_4lessIS6_EENS4_IS6_EEE25__emplace_unique_key_argsIS6_JRKS6_EEENS_4pairINS_15__tree_iteratorIS6_PNS_11__tree_nodeIS6_PvEElEEbEERKT_DpOT0_, symObjAddr: 0x6010, symBinAddr: 0x100025B30, symSize: 0xE0 }
  - { offset: 0xE5516, size: 0x8, addend: 0x0, symName: __ZNSt3__16__treeINS_12basic_stringIcNS_11char_traitsIcEENS_9allocatorIcEEEENS_4lessIS6_EENS4_IS6_EEE12__find_equalIS6_EERPNS_16__tree_node_baseIPvEERPNS_15__tree_end_nodeISF_EERKT_, symObjAddr: 0x60F0, symBinAddr: 0x100025C10, symSize: 0x12C }
  - { offset: 0xE90A3, size: 0x8, addend: 0x0, symName: __ZN6fuzzerL10OutputFileE, symObjAddr: 0x5E418, symBinAddr: 0x100061458, symSize: 0x0 }
  - { offset: 0xE910A, size: 0x8, addend: 0x0, symName: __ZN6fuzzer13GetOutputFileEv, symObjAddr: 0x0, symBinAddr: 0x100026D04, symSize: 0xC }
  - { offset: 0xE9128, size: 0x8, addend: 0x0, symName: __ZN6fuzzer13SetOutputFileEP7__sFILE, symObjAddr: 0xC, symBinAddr: 0x100026D10, symSize: 0xC }
  - { offset: 0xE9151, size: 0x8, addend: 0x0, symName: __ZN6fuzzer8GetEpochERKNSt3__112basic_stringIcNS0_11char_traitsIcEENS0_9allocatorIcEEEE, symObjAddr: 0x18, symBinAddr: 0x100026D1C, symSize: 0x54 }
  - { offset: 0xE9209, size: 0x8, addend: 0x0, symName: __ZN6fuzzer12FileToVectorERKNSt3__112basic_stringIcNS0_11char_traitsIcEENS0_9allocatorIcEEEEmb, symObjAddr: 0x6C, symBinAddr: 0x100026D70, symSize: 0x2BC }
  - { offset: 0xE971D, size: 0x8, addend: 0x0, symName: __ZN6fuzzer6PrintfEPKcz, symObjAddr: 0x328, symBinAddr: 0x10002702C, symSize: 0x44 }
  - { offset: 0xE972E, size: 0x8, addend: 0x0, symName: __ZN6fuzzer6PrintfEPKcz, symObjAddr: 0x328, symBinAddr: 0x10002702C, symSize: 0x44 }
  - { offset: 0xE9794, size: 0x8, addend: 0x0, symName: __ZN6fuzzer12FileToStringERKNSt3__112basic_stringIcNS0_11char_traitsIcEENS0_9allocatorIcEEEE, symObjAddr: 0x36C, symBinAddr: 0x100027070, symSize: 0x1E4 }
  - { offset: 0xE9C27, size: 0x8, addend: 0x0, symName: __ZN6fuzzer13CopyFileToErrERKNSt3__112basic_stringIcNS0_11char_traitsIcEENS0_9allocatorIcEEEE, symObjAddr: 0x550, symBinAddr: 0x100027254, symSize: 0x78 }
  - { offset: 0xE9E38, size: 0x8, addend: 0x0, symName: __ZN6fuzzer4PutsEPKc, symObjAddr: 0x5C8, symBinAddr: 0x1000272CC, symSize: 0x28 }
  - { offset: 0xE9EB9, size: 0x8, addend: 0x0, symName: __ZN6fuzzer11WriteToFileERKNSt3__16vectorIhNS0_9allocatorIhEEEERKNS0_12basic_stringIcNS0_11char_traitsIcEENS2_IcEEEE, symObjAddr: 0x5F0, symBinAddr: 0x1000272F4, symSize: 0x70 }
  - { offset: 0xEA014, size: 0x8, addend: 0x0, symName: __ZN6fuzzer11WriteToFileEPKhmRKNSt3__112basic_stringIcNS2_11char_traitsIcEENS2_9allocatorIcEEEE, symObjAddr: 0x660, symBinAddr: 0x100027364, symSize: 0x74 }
  - { offset: 0xEA10E, size: 0x8, addend: 0x0, symName: __ZN6fuzzer11WriteToFileERKNSt3__112basic_stringIcNS0_11char_traitsIcEENS0_9allocatorIcEEEES8_, symObjAddr: 0x6D4, symBinAddr: 0x1000273D8, symSize: 0x8C }
  - { offset: 0xEA2EF, size: 0x8, addend: 0x0, symName: __ZN6fuzzer12AppendToFileERKNSt3__112basic_stringIcNS0_11char_traitsIcEENS0_9allocatorIcEEEES8_, symObjAddr: 0x760, symBinAddr: 0x100027464, symSize: 0x8C }
  - { offset: 0xEA47B, size: 0x8, addend: 0x0, symName: __ZN6fuzzer12AppendToFileEPKhmRKNSt3__112basic_stringIcNS2_11char_traitsIcEENS2_9allocatorIcEEEE, symObjAddr: 0x7EC, symBinAddr: 0x1000274F0, symSize: 0x74 }
  - { offset: 0xEA59F, size: 0x8, addend: 0x0, symName: __ZN6fuzzer22ReadDirToVectorOfUnitsEPKcPNSt3__16vectorINS3_IhNS2_9allocatorIhEEEENS4_IS6_EEEEPlmbPNS3_INS2_12basic_stringIcNS2_11char_traitsIcEENS4_IcEEEENS4_ISF_EEEE, symObjAddr: 0x860, symBinAddr: 0x100027564, symSize: 0x380 }
  - { offset: 0xEB5E2, size: 0x8, addend: 0x0, symName: __ZN6fuzzer20GetSizedFilesFromDirERKNSt3__112basic_stringIcNS0_11char_traitsIcEENS0_9allocatorIcEEEEPNS0_6vectorINS_9SizedFileENS4_ISA_EEEE, symObjAddr: 0xBE0, symBinAddr: 0x1000278E4, symSize: 0x174 }
  - { offset: 0xEB60E, size: 0x8, addend: 0x0, symName: __ZN6fuzzer20GetSizedFilesFromDirERKNSt3__112basic_stringIcNS0_11char_traitsIcEENS0_9allocatorIcEEEEPNS0_6vectorINS_9SizedFileENS4_ISA_EEEE, symObjAddr: 0xBE0, symBinAddr: 0x1000278E4, symSize: 0x174 }
  - { offset: 0xEBD89, size: 0x8, addend: 0x0, symName: __ZN6fuzzer11DirPlusFileERKNSt3__112basic_stringIcNS0_11char_traitsIcEENS0_9allocatorIcEEEES8_, symObjAddr: 0xD54, symBinAddr: 0x100027A58, symSize: 0x130 }
  - { offset: 0xEC343, size: 0x8, addend: 0x0, symName: __ZN6fuzzer17DupAndCloseStderrEv, symObjAddr: 0xE84, symBinAddr: 0x100027B88, symSize: 0x70 }
  - { offset: 0xEC35E, size: 0x8, addend: 0x0, symName: __ZN6fuzzer17DupAndCloseStderrEv, symObjAddr: 0xE84, symBinAddr: 0x100027B88, symSize: 0x70 }
  - { offset: 0xEC455, size: 0x8, addend: 0x0, symName: __ZN6fuzzer11CloseStdoutEv, symObjAddr: 0xEF4, symBinAddr: 0x100027BF8, symSize: 0x8 }
  - { offset: 0xEC484, size: 0x8, addend: 0x0, symName: __ZN6fuzzer7VPrintfEbPKcz, symObjAddr: 0xEFC, symBinAddr: 0x100027C00, symSize: 0x44 }
  - { offset: 0xEC4F3, size: 0x8, addend: 0x0, symName: __ZN6fuzzer14MkDirRecursiveERKNSt3__112basic_stringIcNS0_11char_traitsIcEENS0_9allocatorIcEEEE, symObjAddr: 0xF40, symBinAddr: 0x100027C44, symSize: 0x60 }
  - { offset: 0xEC5AF, size: 0x8, addend: 0x0, symName: __ZN6fuzzerL19MkDirRecursiveInnerERKNSt3__112basic_stringIcNS0_11char_traitsIcEENS0_9allocatorIcEEEE, symObjAddr: 0xFA0, symBinAddr: 0x100027CA4, symSize: 0xFC }
  - { offset: 0xEC8C3, size: 0x8, addend: 0x0, symName: __ZN6fuzzer14RmDirRecursiveERKNSt3__112basic_stringIcNS0_11char_traitsIcEENS0_9allocatorIcEEEE, symObjAddr: 0x109C, symBinAddr: 0x100027DA0, symSize: 0x1C }
  - { offset: 0xEC8F5, size: 0x8, addend: 0x0, symName: __ZN6fuzzer14RmDirRecursiveERKNSt3__112basic_stringIcNS0_11char_traitsIcEENS0_9allocatorIcEEEE, symObjAddr: 0x109C, symBinAddr: 0x100027DA0, symSize: 0x1C }
  - { offset: 0xEC9B6, size: 0x8, addend: 0x0, symName: __ZN6fuzzer8TempPathEPKcS1_, symObjAddr: 0x10B8, symBinAddr: 0x100027DBC, symSize: 0x230 }
  - { offset: 0xFC59D, size: 0x8, addend: 0x0, symName: '__ZZN6fuzzer14RmDirRecursiveERKNSt3__112basic_stringIcNS0_11char_traitsIcEENS0_9allocatorIcEEEEEN3$_08__invokeES8_', symObjAddr: 0x1318, symBinAddr: 0x100027FEC, symSize: 0x4 }
  - { offset: 0xFF56A, size: 0x8, addend: 0x0, symName: __ZNSt3__16vectorINS0_IhNS_9allocatorIhEEEENS1_IS3_EEE24__emplace_back_slow_pathIJRKS3_EEEPS3_DpOT_, symObjAddr: 0x1408, symBinAddr: 0x100027FF8, symSize: 0x138 }
  - { offset: 0xFFC25, size: 0x8, addend: 0x0, symName: __ZNSt3__16vectorINS0_IhNS_9allocatorIhEEEENS1_IS3_EEE20__throw_length_errorB8nn210108Ev, symObjAddr: 0x1540, symBinAddr: 0x100028130, symSize: 0x14 }
  - { offset: 0x100007, size: 0x8, addend: 0x0, symName: __ZNSt3__16vectorINS0_IhNS_9allocatorIhEEEENS1_IS3_EEE24__emplace_back_slow_pathIJRKS3_EEEPS3_DpOT_, symObjAddr: 0x1408, symBinAddr: 0x100027FF8, symSize: 0x138 }
  - { offset: 0x1008AF, size: 0x8, addend: 0x0, symName: '__ZZN6fuzzer14RmDirRecursiveERKNSt3__112basic_stringIcNS0_11char_traitsIcEENS0_9allocatorIcEEEEEN3$_08__invokeES8_', symObjAddr: 0x1318, symBinAddr: 0x100027FEC, symSize: 0x4 }
  - { offset: 0x10090C, size: 0x8, addend: 0x0, symName: '__ZZN6fuzzer14RmDirRecursiveERKNSt3__112basic_stringIcNS0_11char_traitsIcEENS0_9allocatorIcEEEEEN3$_18__invokeES8_', symObjAddr: 0x131C, symBinAddr: 0x100027FF0, symSize: 0x4 }
  - { offset: 0x100936, size: 0x8, addend: 0x0, symName: '__ZZN6fuzzer14RmDirRecursiveERKNSt3__112basic_stringIcNS0_11char_traitsIcEENS0_9allocatorIcEEEEEN3$_18__invokeES8_', symObjAddr: 0x131C, symBinAddr: 0x100027FF0, symSize: 0x4 }
  - { offset: 0x100954, size: 0x8, addend: 0x0, symName: '__ZZN6fuzzer14RmDirRecursiveERKNSt3__112basic_stringIcNS0_11char_traitsIcEENS0_9allocatorIcEEEEEN3$_18__invokeES8_', symObjAddr: 0x131C, symBinAddr: 0x100027FF0, symSize: 0x4 }
  - { offset: 0x10099F, size: 0x8, addend: 0x0, symName: '__ZZN6fuzzer14RmDirRecursiveERKNSt3__112basic_stringIcNS0_11char_traitsIcEENS0_9allocatorIcEEEEEN3$_28__invokeES8_', symObjAddr: 0x1320, symBinAddr: 0x100027FF4, symSize: 0x4 }
  - { offset: 0x1009C9, size: 0x8, addend: 0x0, symName: '__ZZN6fuzzer14RmDirRecursiveERKNSt3__112basic_stringIcNS0_11char_traitsIcEENS0_9allocatorIcEEEEEN3$_28__invokeES8_', symObjAddr: 0x1320, symBinAddr: 0x100027FF4, symSize: 0x4 }
  - { offset: 0x1009E7, size: 0x8, addend: 0x0, symName: '__ZZN6fuzzer14RmDirRecursiveERKNSt3__112basic_stringIcNS0_11char_traitsIcEENS0_9allocatorIcEEEEEN3$_28__invokeES8_', symObjAddr: 0x1320, symBinAddr: 0x100027FF4, symSize: 0x4 }
  - { offset: 0x100C1F, size: 0x8, addend: 0x0, symName: __ZNSt3__16vectorINS0_IhNS_9allocatorIhEEEENS1_IS3_EEE20__throw_length_errorB8nn210108Ev, symObjAddr: 0x1540, symBinAddr: 0x100028130, symSize: 0x14 }
  - { offset: 0x101064, size: 0x8, addend: 0x0, symName: __GLOBAL__sub_I_FuzzerIO.cpp, symObjAddr: 0x17F0, symBinAddr: 0x100028144, symSize: 0x18 }
  - { offset: 0x101076, size: 0x8, addend: 0x0, symName: __GLOBAL__sub_I_FuzzerIO.cpp, symObjAddr: 0x17F0, symBinAddr: 0x100028144, symSize: 0x18 }
  - { offset: 0x10108E, size: 0x8, addend: 0x0, symName: __GLOBAL__sub_I_FuzzerIO.cpp, symObjAddr: 0x17F0, symBinAddr: 0x100028144, symSize: 0x18 }
  - { offset: 0x102D21, size: 0x8, addend: 0x0, symName: __ZN6fuzzer6IsFileERKNSt3__112basic_stringIcNS0_11char_traitsIcEENS0_9allocatorIcEEEE, symObjAddr: 0x0, symBinAddr: 0x10002815C, symSize: 0x60 }
  - { offset: 0x102D4A, size: 0x8, addend: 0x0, symName: __ZN6fuzzer10getDevNullEv, symObjAddr: 0xEF0, symBinAddr: 0x100028FA4, symSize: 0x80 }
  - { offset: 0x102D74, size: 0x8, addend: 0x0, symName: __MergedGlobals, symObjAddr: 0x23698, symBinAddr: 0x100061460, symSize: 0x0 }
  - { offset: 0x102D96, size: 0x8, addend: 0x0, symName: __ZN6fuzzer6IsFileERKNSt3__112basic_stringIcNS0_11char_traitsIcEENS0_9allocatorIcEEEE, symObjAddr: 0x0, symBinAddr: 0x10002815C, symSize: 0x60 }
  - { offset: 0x102E4E, size: 0x8, addend: 0x0, symName: __ZN6fuzzer11IsDirectoryERKNSt3__112basic_stringIcNS0_11char_traitsIcEENS0_9allocatorIcEEEE, symObjAddr: 0x60, symBinAddr: 0x1000281BC, symSize: 0x60 }
  - { offset: 0x102F06, size: 0x8, addend: 0x0, symName: __ZN6fuzzer8FileSizeERKNSt3__112basic_stringIcNS0_11char_traitsIcEENS0_9allocatorIcEEEE, symObjAddr: 0xC0, symBinAddr: 0x10002821C, symSize: 0x54 }
  - { offset: 0x102FD4, size: 0x8, addend: 0x0, symName: __ZN6fuzzer8BasenameERKNSt3__112basic_stringIcNS0_11char_traitsIcEENS0_9allocatorIcEEEE, symObjAddr: 0x114, symBinAddr: 0x100028270, symSize: 0x154 }
  - { offset: 0x103374, size: 0x8, addend: 0x0, symName: __ZN6fuzzer12GetSeparatorEv, symObjAddr: 0x268, symBinAddr: 0x1000283C4, symSize: 0x8 }
  - { offset: 0x10337F, size: 0x8, addend: 0x0, symName: __ZN6fuzzer12GetSeparatorEv, symObjAddr: 0x268, symBinAddr: 0x1000283C4, symSize: 0x8 }
  - { offset: 0x1033F1, size: 0x8, addend: 0x0, symName: __ZN6fuzzer23ListFilesInDirRecursiveERKNSt3__112basic_stringIcNS0_11char_traitsIcEENS0_9allocatorIcEEEEPlPNS0_6vectorIS6_NS4_IS6_EEEEb, symObjAddr: 0x270, symBinAddr: 0x1000283CC, symSize: 0x3FC }
  - { offset: 0x104233, size: 0x8, addend: 0x0, symName: __ZN6fuzzer19IterateDirRecursiveERKNSt3__112basic_stringIcNS0_11char_traitsIcEENS0_9allocatorIcEEEEPFvS8_ESA_SA_, symObjAddr: 0x714, symBinAddr: 0x1000287C8, symSize: 0x258 }
  - { offset: 0x1049E8, size: 0x8, addend: 0x0, symName: __ZN6fuzzer11IsSeparatorEc, symObjAddr: 0x96C, symBinAddr: 0x100028A20, symSize: 0xC }
  - { offset: 0x1049F3, size: 0x8, addend: 0x0, symName: __ZN6fuzzer11IsSeparatorEc, symObjAddr: 0x96C, symBinAddr: 0x100028A20, symSize: 0xC }
  - { offset: 0x104A22, size: 0x8, addend: 0x0, symName: __ZN6fuzzer8OpenFileEiPKc, symObjAddr: 0x978, symBinAddr: 0x100028A2C, symSize: 0x4 }
  - { offset: 0x104A60, size: 0x8, addend: 0x0, symName: __ZN6fuzzer8OpenFileEiPKc, symObjAddr: 0x978, symBinAddr: 0x100028A2C, symSize: 0x4 }
  - { offset: 0x104A7A, size: 0x8, addend: 0x0, symName: __ZN6fuzzer9CloseFileEi, symObjAddr: 0x97C, symBinAddr: 0x100028A30, symSize: 0x4 }
  - { offset: 0x104AAA, size: 0x8, addend: 0x0, symName: __ZN6fuzzer9CloseFileEi, symObjAddr: 0x97C, symBinAddr: 0x100028A30, symSize: 0x4 }
  - { offset: 0x104ABD, size: 0x8, addend: 0x0, symName: __ZN6fuzzer13DuplicateFileEi, symObjAddr: 0x980, symBinAddr: 0x100028A34, symSize: 0x4 }
  - { offset: 0x104AED, size: 0x8, addend: 0x0, symName: __ZN6fuzzer13DuplicateFileEi, symObjAddr: 0x980, symBinAddr: 0x100028A34, symSize: 0x4 }
  - { offset: 0x104B00, size: 0x8, addend: 0x0, symName: __ZN6fuzzer10RemoveFileERKNSt3__112basic_stringIcNS0_11char_traitsIcEENS0_9allocatorIcEEEE, symObjAddr: 0x984, symBinAddr: 0x100028A38, symSize: 0x14 }
  - { offset: 0x104B2E, size: 0x8, addend: 0x0, symName: __ZN6fuzzer10RemoveFileERKNSt3__112basic_stringIcNS0_11char_traitsIcEENS0_9allocatorIcEEEE, symObjAddr: 0x984, symBinAddr: 0x100028A38, symSize: 0x14 }
  - { offset: 0x104B4B, size: 0x8, addend: 0x0, symName: __ZN6fuzzer10RemoveFileERKNSt3__112basic_stringIcNS0_11char_traitsIcEENS0_9allocatorIcEEEE, symObjAddr: 0x984, symBinAddr: 0x100028A38, symSize: 0x14 }
  - { offset: 0x104B69, size: 0x8, addend: 0x0, symName: __ZN6fuzzer10RemoveFileERKNSt3__112basic_stringIcNS0_11char_traitsIcEENS0_9allocatorIcEEEE, symObjAddr: 0x984, symBinAddr: 0x100028A38, symSize: 0x14 }
  - { offset: 0x104B87, size: 0x8, addend: 0x0, symName: __ZN6fuzzer10RemoveFileERKNSt3__112basic_stringIcNS0_11char_traitsIcEENS0_9allocatorIcEEEE, symObjAddr: 0x984, symBinAddr: 0x100028A38, symSize: 0x14 }
  - { offset: 0x104BB4, size: 0x8, addend: 0x0, symName: __ZN6fuzzer10RenameFileERKNSt3__112basic_stringIcNS0_11char_traitsIcEENS0_9allocatorIcEEEES8_, symObjAddr: 0x998, symBinAddr: 0x100028A4C, symSize: 0x24 }
  - { offset: 0x104BF2, size: 0x8, addend: 0x0, symName: __ZN6fuzzer10RenameFileERKNSt3__112basic_stringIcNS0_11char_traitsIcEENS0_9allocatorIcEEEES8_, symObjAddr: 0x998, symBinAddr: 0x100028A4C, symSize: 0x24 }
  - { offset: 0x104C0F, size: 0x8, addend: 0x0, symName: __ZN6fuzzer10RenameFileERKNSt3__112basic_stringIcNS0_11char_traitsIcEENS0_9allocatorIcEEEES8_, symObjAddr: 0x998, symBinAddr: 0x100028A4C, symSize: 0x24 }
  - { offset: 0x104C2D, size: 0x8, addend: 0x0, symName: __ZN6fuzzer10RenameFileERKNSt3__112basic_stringIcNS0_11char_traitsIcEENS0_9allocatorIcEEEES8_, symObjAddr: 0x998, symBinAddr: 0x100028A4C, symSize: 0x24 }
  - { offset: 0x104C4B, size: 0x8, addend: 0x0, symName: __ZN6fuzzer10RenameFileERKNSt3__112basic_stringIcNS0_11char_traitsIcEENS0_9allocatorIcEEEES8_, symObjAddr: 0x998, symBinAddr: 0x100028A4C, symSize: 0x24 }
  - { offset: 0x104CF3, size: 0x8, addend: 0x0, symName: __ZN6fuzzer15GetHandleFromFdEi, symObjAddr: 0x9BC, symBinAddr: 0x100028A70, symSize: 0x8 }
  - { offset: 0x104D22, size: 0x8, addend: 0x0, symName: __ZN6fuzzer7DirNameERKNSt3__112basic_stringIcNS0_11char_traitsIcEENS0_9allocatorIcEEEE, symObjAddr: 0x9C4, symBinAddr: 0x100028A78, symSize: 0xFC }
  - { offset: 0x1050D5, size: 0x8, addend: 0x0, symName: __ZN6fuzzer6TmpDirEv, symObjAddr: 0xAC0, symBinAddr: 0x100028B74, symSize: 0x120 }
  - { offset: 0x1050E0, size: 0x8, addend: 0x0, symName: __ZN6fuzzer6TmpDirEv, symObjAddr: 0xAC0, symBinAddr: 0x100028B74, symSize: 0x120 }
  - { offset: 0x105630, size: 0x8, addend: 0x0, symName: __ZN6fuzzer25IsInterestingCoverageFileERKNSt3__112basic_stringIcNS0_11char_traitsIcEENS0_9allocatorIcEEEE, symObjAddr: 0xBE0, symBinAddr: 0x100028C94, symSize: 0x2B8 }
  - { offset: 0x10563B, size: 0x8, addend: 0x0, symName: __ZN6fuzzer25IsInterestingCoverageFileERKNSt3__112basic_stringIcNS0_11char_traitsIcEENS0_9allocatorIcEEEE, symObjAddr: 0xBE0, symBinAddr: 0x100028C94, symSize: 0x2B8 }
  - { offset: 0x105DE0, size: 0x8, addend: 0x0, symName: __ZN6fuzzer8RawPrintEPKc, symObjAddr: 0xE98, symBinAddr: 0x100028F4C, symSize: 0x2C }
  - { offset: 0x105DEB, size: 0x8, addend: 0x0, symName: __ZN6fuzzer8RawPrintEPKc, symObjAddr: 0xE98, symBinAddr: 0x100028F4C, symSize: 0x2C }
  - { offset: 0x105E40, size: 0x8, addend: 0x0, symName: __ZN6fuzzer5MkDirERKNSt3__112basic_stringIcNS0_11char_traitsIcEENS0_9allocatorIcEEEE, symObjAddr: 0xEC4, symBinAddr: 0x100028F78, symSize: 0x18 }
  - { offset: 0x105E6E, size: 0x8, addend: 0x0, symName: __ZN6fuzzer5MkDirERKNSt3__112basic_stringIcNS0_11char_traitsIcEENS0_9allocatorIcEEEE, symObjAddr: 0xEC4, symBinAddr: 0x100028F78, symSize: 0x18 }
  - { offset: 0x105E8B, size: 0x8, addend: 0x0, symName: __ZN6fuzzer5MkDirERKNSt3__112basic_stringIcNS0_11char_traitsIcEENS0_9allocatorIcEEEE, symObjAddr: 0xEC4, symBinAddr: 0x100028F78, symSize: 0x18 }
  - { offset: 0x105EA9, size: 0x8, addend: 0x0, symName: __ZN6fuzzer5MkDirERKNSt3__112basic_stringIcNS0_11char_traitsIcEENS0_9allocatorIcEEEE, symObjAddr: 0xEC4, symBinAddr: 0x100028F78, symSize: 0x18 }
  - { offset: 0x105EC7, size: 0x8, addend: 0x0, symName: __ZN6fuzzer5MkDirERKNSt3__112basic_stringIcNS0_11char_traitsIcEENS0_9allocatorIcEEEE, symObjAddr: 0xEC4, symBinAddr: 0x100028F78, symSize: 0x18 }
  - { offset: 0x105EFC, size: 0x8, addend: 0x0, symName: __ZN6fuzzer5RmDirERKNSt3__112basic_stringIcNS0_11char_traitsIcEENS0_9allocatorIcEEEE, symObjAddr: 0xEDC, symBinAddr: 0x100028F90, symSize: 0x14 }
  - { offset: 0x105F2A, size: 0x8, addend: 0x0, symName: __ZN6fuzzer5RmDirERKNSt3__112basic_stringIcNS0_11char_traitsIcEENS0_9allocatorIcEEEE, symObjAddr: 0xEDC, symBinAddr: 0x100028F90, symSize: 0x14 }
  - { offset: 0x105F47, size: 0x8, addend: 0x0, symName: __ZN6fuzzer5RmDirERKNSt3__112basic_stringIcNS0_11char_traitsIcEENS0_9allocatorIcEEEE, symObjAddr: 0xEDC, symBinAddr: 0x100028F90, symSize: 0x14 }
  - { offset: 0x105F65, size: 0x8, addend: 0x0, symName: __ZN6fuzzer5RmDirERKNSt3__112basic_stringIcNS0_11char_traitsIcEENS0_9allocatorIcEEEE, symObjAddr: 0xEDC, symBinAddr: 0x100028F90, symSize: 0x14 }
  - { offset: 0x105F83, size: 0x8, addend: 0x0, symName: __ZN6fuzzer5RmDirERKNSt3__112basic_stringIcNS0_11char_traitsIcEENS0_9allocatorIcEEEE, symObjAddr: 0xEDC, symBinAddr: 0x100028F90, symSize: 0x14 }
  - { offset: 0x10AFD5, size: 0x8, addend: 0x0, symName: __ZN6fuzzer19IterateDirRecursiveERKNSt3__112basic_stringIcNS0_11char_traitsIcEENS0_9allocatorIcEEEEPFvS8_ESA_SA_, symObjAddr: 0x714, symBinAddr: 0x1000287C8, symSize: 0x258 }
  - { offset: 0x10D0D5, size: 0x8, addend: 0x0, symName: __ZN6fuzzer6Fuzzer10IsMyThreadE, symObjAddr: 0xA1B4, symBinAddr: 0x10005FCE8, symSize: 0x0 }
  - { offset: 0x10E899, size: 0x8, addend: 0x0, symName: __ZN6fuzzer19RunningUserCallbackE, symObjAddr: 0x12250D, symBinAddr: 0x100061608, symSize: 0x0 }
  - { offset: 0x10E8B3, size: 0x8, addend: 0x0, symName: __MergedGlobals, symObjAddr: 0x122510, symBinAddr: 0x100061480, symSize: 0x0 }
  - { offset: 0x10E967, size: 0x8, addend: 0x0, symName: __MergedGlobals, symObjAddr: 0x122510, symBinAddr: 0x100061480, symSize: 0x0 }
  - { offset: 0x10EF6F, size: 0x8, addend: 0x0, symName: __ZN6fuzzer10MallocHookEPVKvm, symObjAddr: 0x28, symBinAddr: 0x10002904C, symSize: 0xE4 }
  - { offset: 0x10F1B8, size: 0x8, addend: 0x0, symName: __ZN6fuzzer8FreeHookEPVKv, symObjAddr: 0x18C, symBinAddr: 0x1000291B0, symSize: 0xC4 }
  - { offset: 0x10F58A, size: 0x8, addend: 0x0, symName: __ZN6fuzzerL20RenameFeatureSetFileERKNSt3__112basic_stringIcNS0_11char_traitsIcEENS0_9allocatorIcEEEES8_S8_, symObjAddr: 0x2C4C, symBinAddr: 0x10002BC70, symSize: 0xA0 }
  - { offset: 0x10F5DC, size: 0x8, addend: 0x0, symName: __ZN6fuzzerL20RenameFeatureSetFileERKNSt3__112basic_stringIcNS0_11char_traitsIcEENS0_9allocatorIcEEEES8_S8_, symObjAddr: 0x2C4C, symBinAddr: 0x10002BC70, symSize: 0xA0 }
  - { offset: 0x10F5FA, size: 0x8, addend: 0x0, symName: __ZN6fuzzerL20RenameFeatureSetFileERKNSt3__112basic_stringIcNS0_11char_traitsIcEENS0_9allocatorIcEEEES8_S8_, symObjAddr: 0x2C4C, symBinAddr: 0x10002BC70, symSize: 0xA0 }
  - { offset: 0x10F618, size: 0x8, addend: 0x0, symName: __ZN6fuzzerL20RenameFeatureSetFileERKNSt3__112basic_stringIcNS0_11char_traitsIcEENS0_9allocatorIcEEEES8_S8_, symObjAddr: 0x2C4C, symBinAddr: 0x10002BC70, symSize: 0xA0 }
  - { offset: 0x10F989, size: 0x8, addend: 0x0, symName: '__ZN6fuzzer18ForEachNonZeroByteIZNKS_7TracePC15CollectFeaturesIZNS_6Fuzzer6RunOneEPKhmbPNS_9InputInfoEbPbE3$_0EEmT_EUlmmhE_EEmS5_S5_mSA_', symObjAddr: 0x7520, symBinAddr: 0x10002F284, symSize: 0xAEC }
  - { offset: 0x110951, size: 0x8, addend: 0x0, symName: '__ZZN6fuzzer6Fuzzer6RunOneEPKhmbPNS_9InputInfoEbPbENK3$_0clEj', symObjAddr: 0x800C, symBinAddr: 0x10002FD70, symSize: 0x114 }
  - { offset: 0x126CA8, size: 0x8, addend: 0x0, symName: __ZNSt3__113__stable_sortINS_17_ClassicAlgPolicyERNS_6__lessIvvEENS_11__wrap_iterIPN6fuzzer9SizedFileEEEEEvT1_SA_T0_NS_15iterator_traitsISA_E15difference_typeEPNSD_10value_typeEl, symObjAddr: 0x8F50, symBinAddr: 0x100030CB4, symSize: 0x2A4 }
  - { offset: 0x1276FF, size: 0x8, addend: 0x0, symName: __ZNSt3__124__buffered_inplace_mergeB8nn210108INS_17_ClassicAlgPolicyERNS_6__lessIvvEENS_11__wrap_iterIPN6fuzzer9SizedFileEEEEEvT1_SA_SA_OT0_NS_15iterator_traitsISA_E15difference_typeESF_PNSE_10value_typeE, symObjAddr: 0x9AE4, symBinAddr: 0x100031848, symSize: 0x174 }
  - { offset: 0x12C3FE, size: 0x8, addend: 0x0, symName: __ZNSt3__115__inplace_mergeINS_17_ClassicAlgPolicyERNS_6__lessIvvEENS_11__wrap_iterIPN6fuzzer9SizedFileEEEEEvT1_SA_SA_OT0_NS_15iterator_traitsISA_E15difference_typeESF_PNSE_10value_typeEl, symObjAddr: 0x964C, symBinAddr: 0x1000313B0, symSize: 0x2E4 }
  - { offset: 0x12CE82, size: 0x8, addend: 0x0, symName: __ZNSt3__118__stable_sort_moveINS_17_ClassicAlgPolicyERNS_6__lessIvvEENS_11__wrap_iterIPN6fuzzer9SizedFileEEEEEvT1_SA_T0_NS_15iterator_traitsISA_E15difference_typeEPNSD_10value_typeE, symObjAddr: 0x91F4, symBinAddr: 0x100030F58, symSize: 0x2AC }
  - { offset: 0x12D7EB, size: 0x8, addend: 0x0, symName: __ZNSt3__119__merge_move_assignB8nn210108INS_17_ClassicAlgPolicyERNS_6__lessIvvEEPN6fuzzer9SizedFileES7_NS_11__wrap_iterIS7_EEEEvT1_SA_T2_SB_T3_T0_, symObjAddr: 0x94A0, symBinAddr: 0x100031204, symSize: 0x1AC }
  - { offset: 0x12E013, size: 0x8, addend: 0x0, symName: __ZNSt3__121__insertion_sort_moveB8nn210108INS_17_ClassicAlgPolicyERNS_6__lessIvvEENS_11__wrap_iterIPN6fuzzer9SizedFileEEEEEvT1_SA_PNS_15iterator_traitsISA_E10value_typeET0_, symObjAddr: 0x9930, symBinAddr: 0x100031694, symSize: 0x1B4 }
  - { offset: 0x12EBC2, size: 0x8, addend: 0x0, symName: __ZNSt3__116__rotate_forwardB8nn210108INS_17_ClassicAlgPolicyENS_11__wrap_iterIPN6fuzzer9SizedFileEEEEET0_S7_S7_S7_, symObjAddr: 0x9F10, symBinAddr: 0x100031C74, symSize: 0x1E0 }
  - { offset: 0x12F2B4, size: 0x8, addend: 0x0, symName: __ZNSt3__120__half_inplace_mergeB8nn210108INS_17_ClassicAlgPolicyENS_8__invertIRNS_6__lessIvvEEEENS_16reverse_iteratorIPN6fuzzer9SizedFileEEESB_NS7_INS_11__wrap_iterISA_EEEESE_SE_EEvT1_T2_T3_T4_T5_OT0_, symObjAddr: 0x9D94, symBinAddr: 0x100031AF8, symSize: 0x17C }
  - { offset: 0x12F8A5, size: 0x8, addend: 0x0, symName: __ZNSt3__120__half_inplace_mergeB8nn210108INS_17_ClassicAlgPolicyERNS_6__lessIvvEEPN6fuzzer9SizedFileES7_NS_11__wrap_iterIS7_EES9_S9_EEvT1_T2_T3_T4_T5_OT0_, symObjAddr: 0x9C58, symBinAddr: 0x1000319BC, symSize: 0x13C }
  - { offset: 0x131004, size: 0x8, addend: 0x0, symName: __ZNSt3__16vectorIhNS_9allocatorIhEEE18__assign_with_sizeB8nn210108IPhS5_EEvT_T0_l, symObjAddr: 0x4C78, symBinAddr: 0x10002DA90, symSize: 0x13C }
  - { offset: 0x132303, size: 0x8, addend: 0x0, symName: __ZN6fuzzer6Fuzzer23CheckExitOnSrcPosOrItemEv, symObjAddr: 0x140C, symBinAddr: 0x10002A430, symSize: 0x320 }
  - { offset: 0x13232B, size: 0x8, addend: 0x0, symName: __MergedGlobals, symObjAddr: 0x122510, symBinAddr: 0x100061480, symSize: 0x0 }
  - { offset: 0x132DB1, size: 0x8, addend: 0x0, symName: __ZN6fuzzer6Fuzzer18RereadOutputCorpusEm, symObjAddr: 0x172C, symBinAddr: 0x10002A750, symSize: 0x2D0 }
  - { offset: 0x1334F2, size: 0x8, addend: 0x0, symName: __ZNSt3__124uniform_int_distributionIlEclIN6fuzzer6RandomEEElRT_RKNS1_10param_typeE, symObjAddr: 0x8BA8, symBinAddr: 0x10003090C, symSize: 0x1B4 }
  - { offset: 0x133596, size: 0x8, addend: 0x0, symName: __ZNSt3__124uniform_int_distributionIlEclIN6fuzzer6RandomEEElRT_RKNS1_10param_typeE, symObjAddr: 0x8BA8, symBinAddr: 0x10003090C, symSize: 0x1B4 }
  - { offset: 0x1337A2, size: 0x8, addend: 0x0, symName: __ZN6fuzzer16MallocFreeTracerD1Ev, symObjAddr: 0x0, symBinAddr: 0x100029024, symSize: 0x28 }
  - { offset: 0x13397D, size: 0x8, addend: 0x0, symName: __ZN6fuzzer6Fuzzer12HandleMallocEm, symObjAddr: 0x10C, symBinAddr: 0x100029130, symSize: 0x80 }
  - { offset: 0x133A29, size: 0x8, addend: 0x0, symName: __ZN6fuzzer8FreeHookEPVKv, symObjAddr: 0x18C, symBinAddr: 0x1000291B0, symSize: 0xC4 }
  - { offset: 0x133A34, size: 0x8, addend: 0x0, symName: __ZN6fuzzer6Fuzzer15DumpCurrentUnitEPKc, symObjAddr: 0x250, symBinAddr: 0x100029274, symSize: 0x18C }
  - { offset: 0x134261, size: 0x8, addend: 0x0, symName: __ZN6fuzzer6Fuzzer15PrintFinalStatsEv, symObjAddr: 0x3DC, symBinAddr: 0x100029400, symSize: 0x160 }
  - { offset: 0x13426C, size: 0x8, addend: 0x0, symName: __ZN6fuzzer6Fuzzer15PrintFinalStatsEv, symObjAddr: 0x3DC, symBinAddr: 0x100029400, symSize: 0x160 }
  - { offset: 0x134940, size: 0x8, addend: 0x0, symName: __ZN6fuzzer6Fuzzer25WriteUnitToFileWithPrefixERKNSt3__16vectorIhNS1_9allocatorIhEEEEPKc, symObjAddr: 0x7D4, symBinAddr: 0x1000297F8, symSize: 0x294 }
  - { offset: 0x135561, size: 0x8, addend: 0x0, symName: __ZN6fuzzer6Fuzzer19StaticAlarmCallbackEv, symObjAddr: 0xA68, symBinAddr: 0x100029A8C, symSize: 0xC }
  - { offset: 0x135576, size: 0x8, addend: 0x0, symName: __ZNSt3__16vectorIjNS_9allocatorIjEEE18__assign_with_sizeB8nn210108IPjS5_EEvT_T0_l, symObjAddr: 0x4DC8, symBinAddr: 0x10002DBCC, symSize: 0x14C }
  - { offset: 0x135603, size: 0x8, addend: 0x0, symName: __ZN6fuzzer11InputCorpus10PrintStatsEv, symObjAddr: 0x12E4, symBinAddr: 0x10002A308, symSize: 0xC8 }
  - { offset: 0x135629, size: 0x8, addend: 0x0, symName: __ZN6fuzzer11InputCorpus10PrintStatsEv, symObjAddr: 0x12E4, symBinAddr: 0x10002A308, symSize: 0xC8 }
  - { offset: 0x135E42, size: 0x8, addend: 0x0, symName: __ZN6fuzzer6FuzzerC2EPFiPKhmERNS_11InputCorpusERNS_18MutationDispatcherERKNS_14FuzzingOptionsE, symObjAddr: 0x53C, symBinAddr: 0x100029560, symSize: 0x1F8 }
  - { offset: 0x13657C, size: 0x8, addend: 0x0, symName: __ZN6fuzzer14FuzzingOptionsC2ERKS0_, symObjAddr: 0x4704, symBinAddr: 0x10002D728, symSize: 0x25C }
  - { offset: 0x136A0C, size: 0x8, addend: 0x0, symName: __ZN6fuzzer6Fuzzer19StaticDeathCallbackEv, symObjAddr: 0x734, symBinAddr: 0x100029758, symSize: 0x34 }
  - { offset: 0x136A66, size: 0x8, addend: 0x0, symName: __ZN6fuzzer6Fuzzer23AllocateCurrentUnitDataEv, symObjAddr: 0x768, symBinAddr: 0x10002978C, symSize: 0x3C }
  - { offset: 0x136A89, size: 0x8, addend: 0x0, symName: __ZN6fuzzer6FuzzerC1EPFiPKhmERNS_11InputCorpusERNS_18MutationDispatcherERKNS_14FuzzingOptionsE, symObjAddr: 0x7A4, symBinAddr: 0x1000297C8, symSize: 0x4 }
  - { offset: 0x136AEF, size: 0x8, addend: 0x0, symName: __ZN6fuzzer6FuzzerC1EPFiPKhmERNS_11InputCorpusERNS_18MutationDispatcherERKNS_14FuzzingOptionsE, symObjAddr: 0x7A4, symBinAddr: 0x1000297C8, symSize: 0x4 }
  - { offset: 0x136B1E, size: 0x8, addend: 0x0, symName: __ZN6fuzzer6Fuzzer13DeathCallbackEv, symObjAddr: 0x7A8, symBinAddr: 0x1000297CC, symSize: 0x2C }
  - { offset: 0x136E55, size: 0x8, addend: 0x0, symName: __ZN6fuzzer6Fuzzer19StaticAlarmCallbackEv, symObjAddr: 0xA68, symBinAddr: 0x100029A8C, symSize: 0xC }
  - { offset: 0x136E7A, size: 0x8, addend: 0x0, symName: __ZN6fuzzer6Fuzzer13AlarmCallbackEv, symObjAddr: 0xA74, symBinAddr: 0x100029A98, symSize: 0x138 }
  - { offset: 0x136FD3, size: 0x8, addend: 0x0, symName: __ZN6fuzzer6Fuzzer25StaticCrashSignalCallbackEv, symObjAddr: 0xBAC, symBinAddr: 0x100029BD0, symSize: 0xC }
  - { offset: 0x136FFA, size: 0x8, addend: 0x0, symName: __ZN6fuzzer6Fuzzer25StaticCrashSignalCallbackEv, symObjAddr: 0xBAC, symBinAddr: 0x100029BD0, symSize: 0xC }
  - { offset: 0x13701F, size: 0x8, addend: 0x0, symName: __ZN6fuzzer6Fuzzer13CrashCallbackEv, symObjAddr: 0xBB8, symBinAddr: 0x100029BDC, symSize: 0x90 }
  - { offset: 0x1370C7, size: 0x8, addend: 0x0, symName: __ZN6fuzzer6Fuzzer18StaticExitCallbackEv, symObjAddr: 0xC48, symBinAddr: 0x100029C6C, symSize: 0xC }
  - { offset: 0x1370D2, size: 0x8, addend: 0x0, symName: __ZN6fuzzer6Fuzzer18StaticExitCallbackEv, symObjAddr: 0xC48, symBinAddr: 0x100029C6C, symSize: 0xC }
  - { offset: 0x1370F7, size: 0x8, addend: 0x0, symName: __ZN6fuzzer6Fuzzer12ExitCallbackEv, symObjAddr: 0xC54, symBinAddr: 0x100029C78, symSize: 0x94 }
  - { offset: 0x137191, size: 0x8, addend: 0x0, symName: __ZN6fuzzer6Fuzzer23StaticInterruptCallbackEv, symObjAddr: 0xCE8, symBinAddr: 0x100029D0C, symSize: 0x14 }
  - { offset: 0x13719C, size: 0x8, addend: 0x0, symName: __ZN6fuzzer6Fuzzer23StaticInterruptCallbackEv, symObjAddr: 0xCE8, symBinAddr: 0x100029D0C, symSize: 0x14 }
  - { offset: 0x1371B6, size: 0x8, addend: 0x0, symName: __ZN6fuzzer6Fuzzer17InterruptCallbackEv, symObjAddr: 0xCFC, symBinAddr: 0x100029D20, symSize: 0x78 }
  - { offset: 0x1371C1, size: 0x8, addend: 0x0, symName: __ZN6fuzzer6Fuzzer17InterruptCallbackEv, symObjAddr: 0xCFC, symBinAddr: 0x100029D20, symSize: 0x78 }
  - { offset: 0x137292, size: 0x8, addend: 0x0, symName: __ZN6fuzzer6Fuzzer26StaticGracefulExitCallbackEv, symObjAddr: 0xD74, symBinAddr: 0x100029D98, symSize: 0x1C }
  - { offset: 0x13729D, size: 0x8, addend: 0x0, symName: __ZN6fuzzer6Fuzzer26StaticGracefulExitCallbackEv, symObjAddr: 0xD74, symBinAddr: 0x100029D98, symSize: 0x1C }
  - { offset: 0x1372C2, size: 0x8, addend: 0x0, symName: __ZN6fuzzer6Fuzzer28StaticFileSizeExceedCallbackEv, symObjAddr: 0xD90, symBinAddr: 0x100029DB4, symSize: 0x28 }
  - { offset: 0x1372F8, size: 0x8, addend: 0x0, symName: __ZN6fuzzer6Fuzzer19MaybeExitGracefullyEv, symObjAddr: 0xDB8, symBinAddr: 0x100029DDC, symSize: 0x74 }
  - { offset: 0x137317, size: 0x8, addend: 0x0, symName: __ZN6fuzzer6Fuzzer19MaybeExitGracefullyEv, symObjAddr: 0xDB8, symBinAddr: 0x100029DDC, symSize: 0x74 }
  - { offset: 0x137385, size: 0x8, addend: 0x0, symName: __ZN6fuzzer6Fuzzer17InterruptExitCodeEv, symObjAddr: 0xE2C, symBinAddr: 0x100029E50, symSize: 0x10 }
  - { offset: 0x137396, size: 0x8, addend: 0x0, symName: __ZN6fuzzer6Fuzzer17InterruptExitCodeEv, symObjAddr: 0xE2C, symBinAddr: 0x100029E50, symSize: 0x10 }
  - { offset: 0x1373AD, size: 0x8, addend: 0x0, symName: __ZN6fuzzer6Fuzzer16RssLimitCallbackEv, symObjAddr: 0xE3C, symBinAddr: 0x100029E60, symSize: 0xA0 }
  - { offset: 0x137464, size: 0x8, addend: 0x0, symName: __ZN6fuzzer6Fuzzer10PrintStatsEPKcS2_mm, symObjAddr: 0xEDC, symBinAddr: 0x100029F00, symSize: 0x408 }
  - { offset: 0x137624, size: 0x8, addend: 0x0, symName: __ZN6fuzzer6Fuzzer10PrintStatsEPKcS2_mm, symObjAddr: 0xEDC, symBinAddr: 0x100029F00, symSize: 0x408 }
  - { offset: 0x137AF6, size: 0x8, addend: 0x0, symName: __ZN6fuzzer6Fuzzer14SetMaxInputLenEm, symObjAddr: 0x13AC, symBinAddr: 0x10002A3D0, symSize: 0x58 }
  - { offset: 0x137B52, size: 0x8, addend: 0x0, symName: __ZN6fuzzer6Fuzzer17SetMaxMutationLenEm, symObjAddr: 0x1404, symBinAddr: 0x10002A428, symSize: 0x8 }
  - { offset: 0x13884F, size: 0x8, addend: 0x0, symName: __ZN6fuzzer6Fuzzer18RereadOutputCorpusEm, symObjAddr: 0x172C, symBinAddr: 0x10002A750, symSize: 0x2D0 }
  - { offset: 0x1388BE, size: 0x8, addend: 0x0, symName: __ZN6fuzzer6Fuzzer18RereadOutputCorpusEm, symObjAddr: 0x172C, symBinAddr: 0x10002A750, symSize: 0x2D0 }
  - { offset: 0x1388DF, size: 0x8, addend: 0x0, symName: __ZN6fuzzer6Fuzzer18RereadOutputCorpusEm, symObjAddr: 0x172C, symBinAddr: 0x10002A750, symSize: 0x2D0 }
  - { offset: 0x138900, size: 0x8, addend: 0x0, symName: __ZN6fuzzer6Fuzzer18RereadOutputCorpusEm, symObjAddr: 0x172C, symBinAddr: 0x10002A750, symSize: 0x2D0 }
  - { offset: 0x139410, size: 0x8, addend: 0x0, symName: __ZN6fuzzer6Fuzzer6RunOneEPKhmbPNS_9InputInfoEbPb, symObjAddr: 0x19FC, symBinAddr: 0x10002AA20, symSize: 0x514 }
  - { offset: 0x13AB12, size: 0x8, addend: 0x0, symName: __ZN6fuzzer6Fuzzer28PrintPulseAndReportSlowInputEPKhm, symObjAddr: 0x1F10, symBinAddr: 0x10002AF34, symSize: 0x1AC }
  - { offset: 0x13ADB0, size: 0x8, addend: 0x0, symName: __ZN6fuzzer6Fuzzer15ExecuteCallbackEPKhm, symObjAddr: 0x217C, symBinAddr: 0x10002B1A0, symSize: 0x280 }
  - { offset: 0x13B5FB, size: 0x8, addend: 0x0, symName: '__ZNK6fuzzer7TracePC15CollectFeaturesIZNS_6Fuzzer6RunOneEPKhmbPNS_9InputInfoEbPbE3$_0EEmT_', symObjAddr: 0x23FC, symBinAddr: 0x10002B420, symSize: 0x554 }
  - { offset: 0x13B60C, size: 0x8, addend: 0x0, symName: '__ZNK6fuzzer7TracePC15CollectFeaturesIZNS_6Fuzzer6RunOneEPKhmbPNS_9InputInfoEbPbE3$_0EEmT_', symObjAddr: 0x23FC, symBinAddr: 0x10002B420, symSize: 0x554 }
  - { offset: 0x13C5B0, size: 0x8, addend: 0x0, symName: __ZN6fuzzer11InputCorpus11AddToCorpusERKNSt3__16vectorIhNS1_9allocatorIhEEEEmbbbNS1_6chrono8durationIxNS1_5ratioILl1ELl1000000EEEEERKNS2_IjNS3_IjEEEERKNS_13DataFlowTraceEPKNS_9InputInfoE, symObjAddr: 0x2950, symBinAddr: 0x10002B974, symSize: 0x204 }
  - { offset: 0x13C601, size: 0x8, addend: 0x0, symName: __ZN6fuzzer6Fuzzer28PrintPulseAndReportSlowInputEPKhm, symObjAddr: 0x1F10, symBinAddr: 0x10002AF34, symSize: 0x1AC }
  - { offset: 0x13CC04, size: 0x8, addend: 0x0, symName: __ZNSt3__16vectorIhNS_9allocatorIhEEEC1B8nn210108IPKhTnNS_9enable_ifIXaasr31__has_forward_iterator_categoryIT_EE5valuesr16is_constructibleIhNS_15iterator_traitsIS8_E9referenceEEE5valueEiE4typeELi0EEES8_S8_, symObjAddr: 0x20BC, symBinAddr: 0x10002B0E0, symSize: 0xC0 }
  - { offset: 0x13CC0F, size: 0x8, addend: 0x0, symName: __ZNSt3__16vectorIhNS_9allocatorIhEEEC1B8nn210108IPKhTnNS_9enable_ifIXaasr31__has_forward_iterator_categoryIT_EE5valuesr16is_constructibleIhNS_15iterator_traitsIS8_E9referenceEEE5valueEiE4typeELi0EEES8_S8_, symObjAddr: 0x20BC, symBinAddr: 0x10002B0E0, symSize: 0xC0 }
  - { offset: 0x13CF14, size: 0x8, addend: 0x0, symName: __ZN6fuzzer6Fuzzer15ExecuteCallbackEPKhm, symObjAddr: 0x217C, symBinAddr: 0x10002B1A0, symSize: 0x280 }
  - { offset: 0x13CF1F, size: 0x8, addend: 0x0, symName: __ZN6fuzzer11InputCorpus7ReplaceEPNS_9InputInfoERKNSt3__16vectorIhNS3_9allocatorIhEEEENS3_6chrono8durationIxNS3_5ratioILl1ELl1000000EEEEE, symObjAddr: 0x2B54, symBinAddr: 0x10002BB78, symSize: 0xF8 }
  - { offset: 0x13D3FA, size: 0x8, addend: 0x0, symName: __ZN6fuzzer11InputCorpus11AddToCorpusERKNSt3__16vectorIhNS1_9allocatorIhEEEEmbbbNS1_6chrono8durationIxNS1_5ratioILl1ELl1000000EEEEERKNS2_IjNS3_IjEEEERKNS_13DataFlowTraceEPKNS_9InputInfoE, symObjAddr: 0x2950, symBinAddr: 0x10002B974, symSize: 0x204 }
  - { offset: 0x13E5BD, size: 0x8, addend: 0x0, symName: __ZN6fuzzer11InputCorpus10DeleteFileERKNS_9InputInfoE, symObjAddr: 0x56B4, symBinAddr: 0x10002E2D8, symSize: 0xB8 }
  - { offset: 0x13E8B4, size: 0x8, addend: 0x0, symName: __ZN6fuzzer11InputCorpus14AddRareFeatureEj, symObjAddr: 0x845C, symBinAddr: 0x1000301C0, symSize: 0x440 }
  - { offset: 0x13F3CF, size: 0x8, addend: 0x0, symName: __ZNSt3__16vectorINS_4pairIjtEENS_9allocatorIS2_EEE6insertENS_11__wrap_iterIPKS2_EEOS2_, symObjAddr: 0x8994, symBinAddr: 0x1000306F8, symSize: 0x200 }
  - { offset: 0x13FC27, size: 0x8, addend: 0x0, symName: __ZNSt3__16vectorINS_4pairIjtEENS_9allocatorIS2_EEE20__throw_length_errorB8nn210108Ev, symObjAddr: 0x8B94, symBinAddr: 0x1000308F8, symSize: 0x14 }
  - { offset: 0x13FC32, size: 0x8, addend: 0x0, symName: __ZNSt3__16vectorINS_4pairIjtEENS_9allocatorIS2_EEE9push_backB8nn210108EOS2_, symObjAddr: 0x889C, symBinAddr: 0x100030600, symSize: 0xF8 }
  - { offset: 0x14008F, size: 0x8, addend: 0x0, symName: __ZNSt3__16vectorINS_4pairIjtEENS_9allocatorIS2_EEE6insertENS_11__wrap_iterIPKS2_EEOS2_, symObjAddr: 0x8994, symBinAddr: 0x1000306F8, symSize: 0x200 }
  - { offset: 0x14009A, size: 0x8, addend: 0x0, symName: '__ZZN6fuzzer6Fuzzer6RunOneEPKhmbPNS_9InputInfoEbPbENK3$_0clEj', symObjAddr: 0x800C, symBinAddr: 0x10002FD70, symSize: 0x114 }
  - { offset: 0x1403FD, size: 0x8, addend: 0x0, symName: __ZNSt3__112__hash_tableINS_12basic_stringIcNS_11char_traitsIcEENS_9allocatorIcEEEENS_4hashIS6_EENS_8equal_toIS6_EENS4_IS6_EEE25__emplace_unique_key_argsIS6_JRKS6_EEENS_4pairINS_15__hash_iteratorIPNS_11__hash_nodeIS6_PvEEEEbEERKT_DpOT0_, symObjAddr: 0x4F28, symBinAddr: 0x10002DD18, symSize: 0x3E4 }
  - { offset: 0x140661, size: 0x8, addend: 0x0, symName: __ZNSt3__16vectorIPN6fuzzer9InputInfoENS_9allocatorIS3_EEE9push_backB8nn210108EOS3_, symObjAddr: 0x4B3C, symBinAddr: 0x10002D984, symSize: 0xF8 }
  - { offset: 0x140ABE, size: 0x8, addend: 0x0, symName: __ZNSt3__16vectorIPN6fuzzer9InputInfoENS_9allocatorIS3_EEE20__throw_length_errorB8nn210108Ev, symObjAddr: 0x4C34, symBinAddr: 0x10002DA7C, symSize: 0x14 }
  - { offset: 0x140AC9, size: 0x8, addend: 0x0, symName: __ZNSt3__16vectorIhNS_9allocatorIhEEE18__assign_with_sizeB8nn210108IPhS5_EEvT_T0_l, symObjAddr: 0x4C78, symBinAddr: 0x10002DA90, symSize: 0x13C }
  - { offset: 0x14156C, size: 0x8, addend: 0x0, symName: __ZNSt3__16vectorIjNS_9allocatorIjEEE18__assign_with_sizeB8nn210108IPjS5_EEvT_T0_l, symObjAddr: 0x4DC8, symBinAddr: 0x10002DBCC, symSize: 0x14C }
  - { offset: 0x142050, size: 0x8, addend: 0x0, symName: __ZNSt3__112__hash_tableINS_12basic_stringIcNS_11char_traitsIcEENS_9allocatorIcEEEENS_4hashIS6_EENS_8equal_toIS6_EENS4_IS6_EEE25__emplace_unique_key_argsIS6_JRKS6_EEENS_4pairINS_15__hash_iteratorIPNS_11__hash_nodeIS6_PvEEEEbEERKT_DpOT0_, symObjAddr: 0x4F28, symBinAddr: 0x10002DD18, symSize: 0x3E4 }
  - { offset: 0x142870, size: 0x8, addend: 0x0, symName: __ZNKSt3__112__hash_tableINS_17__hash_value_typeINS_12basic_stringIcNS_11char_traitsIcEENS_9allocatorIcEEEENS_6vectorIhNS5_IhEEEEEENS_22__unordered_map_hasherIS7_NS_4pairIKS7_SA_EENS_4hashIS7_EENS_8equal_toIS7_EELb1EEENS_21__unordered_map_equalIS7_SF_SJ_SH_Lb1EEENS5_ISF_EEE4findIS7_EENS_21__hash_const_iteratorIPNS_11__hash_nodeISB_PvEEEERKT_, symObjAddr: 0x54D8, symBinAddr: 0x10002E0FC, symSize: 0x1DC }
  - { offset: 0x142D39, size: 0x8, addend: 0x0, symName: __ZNSt3__112__hash_tableINS_12basic_stringIcNS_11char_traitsIcEENS_9allocatorIcEEEENS_4hashIS6_EENS_8equal_toIS6_EENS4_IS6_EEE4findIS6_EENS_15__hash_iteratorIPNS_11__hash_nodeIS6_PvEEEERKT_, symObjAddr: 0x576C, symBinAddr: 0x10002E390, symSize: 0x1DC }
  - { offset: 0x1430D6, size: 0x8, addend: 0x0, symName: __ZNSt3__112__hash_tableINS_12basic_stringIcNS_11char_traitsIcEENS_9allocatorIcEEEENS_4hashIS6_EENS_8equal_toIS6_EENS4_IS6_EEE5eraseENS_21__hash_const_iteratorIPNS_11__hash_nodeIS6_PvEEEE, symObjAddr: 0x5948, symBinAddr: 0x10002E56C, symSize: 0x170 }
  - { offset: 0x143A28, size: 0x8, addend: 0x0, symName: __ZN6fuzzer6Fuzzer20TPCUpdateObservedPCsEv, symObjAddr: 0x2CEC, symBinAddr: 0x10002BD10, symSize: 0xC }
  - { offset: 0x143A52, size: 0x8, addend: 0x0, symName: __ZNK6fuzzer6Fuzzer28GetCurrentUnitInFuzzingTheadEPPKh, symObjAddr: 0x2CF8, symBinAddr: 0x10002BD1C, symSize: 0x10 }
  - { offset: 0x143AF4, size: 0x8, addend: 0x0, symName: __ZN6fuzzer6Fuzzer22CrashOnOverwrittenDataEv, symObjAddr: 0x2D08, symBinAddr: 0x10002BD2C, symSize: 0x58 }
  - { offset: 0x143B7C, size: 0x8, addend: 0x0, symName: __ZN6fuzzer6Fuzzer19WriteToOutputCorpusERKNSt3__16vectorIhNS1_9allocatorIhEEEE, symObjAddr: 0x2D60, symBinAddr: 0x10002BD84, symSize: 0x194 }
  - { offset: 0x143C37, size: 0x8, addend: 0x0, symName: __ZN6fuzzer6Fuzzer19WriteToOutputCorpusERKNSt3__16vectorIhNS1_9allocatorIhEEEE, symObjAddr: 0x2D60, symBinAddr: 0x10002BD84, symSize: 0x194 }
  - { offset: 0x144157, size: 0x8, addend: 0x0, symName: __ZN6fuzzer6Fuzzer21PrintStatusForNewUnitERKNSt3__16vectorIhNS1_9allocatorIhEEEEPKc, symObjAddr: 0x2EF4, symBinAddr: 0x10002BF18, symSize: 0x184 }
  - { offset: 0x1441B2, size: 0x8, addend: 0x0, symName: __ZN6fuzzer6Fuzzer21PrintStatusForNewUnitERKNSt3__16vectorIhNS1_9allocatorIhEEEEPKc, symObjAddr: 0x2EF4, symBinAddr: 0x10002BF18, symSize: 0x184 }
  - { offset: 0x14430A, size: 0x8, addend: 0x0, symName: __ZN6fuzzer6Fuzzer17ReportNewCoverageEPNS_9InputInfoERKNSt3__16vectorIhNS3_9allocatorIhEEEE, symObjAddr: 0x3078, symBinAddr: 0x10002C09C, symSize: 0x1F4 }
  - { offset: 0x1445CD, size: 0x8, addend: 0x0, symName: __ZN6fuzzer6Fuzzer23TryDetectingAMemoryLeakEPKhmb, symObjAddr: 0x326C, symBinAddr: 0x10002C290, symSize: 0x130 }
  - { offset: 0x144732, size: 0x8, addend: 0x0, symName: __ZN6fuzzer6Fuzzer16MutateAndTestOneEv, symObjAddr: 0x339C, symBinAddr: 0x10002C3C0, symSize: 0x2A4 }
  - { offset: 0x1448E2, size: 0x8, addend: 0x0, symName: __ZN6fuzzer6Fuzzer16MutateAndTestOneEv, symObjAddr: 0x339C, symBinAddr: 0x10002C3C0, symSize: 0x2A4 }
  - { offset: 0x14527B, size: 0x8, addend: 0x0, symName: __ZN6fuzzer6Fuzzer14PurgeAllocatorEv, symObjAddr: 0x3640, symBinAddr: 0x10002C664, symSize: 0x9C }
  - { offset: 0x145286, size: 0x8, addend: 0x0, symName: __ZN6fuzzer11InputCorpus21ChooseUnitIdxToMutateERNS_6RandomE, symObjAddr: 0x5E78, symBinAddr: 0x10002E6DC, symSize: 0x128 }
  - { offset: 0x14579F, size: 0x8, addend: 0x0, symName: __ZN6fuzzer6Fuzzer14PurgeAllocatorEv, symObjAddr: 0x3640, symBinAddr: 0x10002C664, symSize: 0x9C }
  - { offset: 0x145E84, size: 0x8, addend: 0x0, symName: __ZN6fuzzer6Fuzzer25ReadAndExecuteSeedCorporaERNSt3__16vectorINS_9SizedFileENS1_9allocatorIS3_EEEE, symObjAddr: 0x36DC, symBinAddr: 0x10002C700, symSize: 0x80C }
  - { offset: 0x147BA0, size: 0x8, addend: 0x0, symName: __ZN6fuzzer6Fuzzer4LoopERNSt3__16vectorINS_9SizedFileENS1_9allocatorIS3_EEEE, symObjAddr: 0x3EE8, symBinAddr: 0x10002CF0C, symSize: 0x490 }
  - { offset: 0x148A18, size: 0x8, addend: 0x0, symName: __ZN6fuzzer6Fuzzer17MinimizeCrashLoopERKNSt3__16vectorIhNS1_9allocatorIhEEEE, symObjAddr: 0x4378, symBinAddr: 0x10002D39C, symSize: 0x370 }
  - { offset: 0x149308, size: 0x8, addend: 0x0, symName: _LLVMFuzzerMutate, symObjAddr: 0x46E8, symBinAddr: 0x10002D70C, symSize: 0x1C }
  - { offset: 0x149329, size: 0x8, addend: 0x0, symName: _LLVMFuzzerMutate, symObjAddr: 0x46E8, symBinAddr: 0x10002D70C, symSize: 0x1C }
  - { offset: 0x1497E7, size: 0x8, addend: 0x0, symName: __ZNSt3__16vectorIPN6fuzzer9InputInfoENS_9allocatorIS3_EEE20__throw_length_errorB8nn210108Ev, symObjAddr: 0x4C34, symBinAddr: 0x10002DA7C, symSize: 0x14 }
  - { offset: 0x149DAA, size: 0x8, addend: 0x0, symName: __ZNKSt3__112__hash_tableINS_17__hash_value_typeINS_12basic_stringIcNS_11char_traitsIcEENS_9allocatorIcEEEENS_6vectorIhNS5_IhEEEEEENS_22__unordered_map_hasherIS7_NS_4pairIKS7_SA_EENS_4hashIS7_EENS_8equal_toIS7_EELb1EEENS_21__unordered_map_equalIS7_SF_SJ_SH_Lb1EEENS5_ISF_EEE4findIS7_EENS_21__hash_const_iteratorIPNS_11__hash_nodeISB_PvEEEERKT_, symObjAddr: 0x54D8, symBinAddr: 0x10002E0FC, symSize: 0x1DC }
  - { offset: 0x14A411, size: 0x8, addend: 0x0, symName: __ZN6fuzzer11InputCorpus24UpdateCorpusDistributionERNS_6RandomE, symObjAddr: 0x5FA0, symBinAddr: 0x10002E804, symSize: 0x5EC }
  - { offset: 0x14B4CC, size: 0x8, addend: 0x0, symName: __ZN6fuzzer9InputInfo12UpdateEnergyEmbNSt3__16chrono8durationIxNS1_5ratioILl1ELl1000000EEEEE, symObjAddr: 0x658C, symBinAddr: 0x10002EDF0, symSize: 0x178 }
  - { offset: 0x14BB45, size: 0x8, addend: 0x0, symName: __ZNSt3__131piecewise_constant_distributionIdE10param_typeaSERKS2_, symObjAddr: 0x6F90, symBinAddr: 0x10002EF68, symSize: 0x1D0 }
  - { offset: 0x14C75A, size: 0x8, addend: 0x0, symName: __ZNSt3__16vectorIdNS_9allocatorIdEEE18__assign_with_sizeB8nn210108IPdS5_EEvT_T0_l, symObjAddr: 0x7160, symBinAddr: 0x10002F138, symSize: 0x14C }
  - { offset: 0x14D738, size: 0x8, addend: 0x0, symName: __ZNSt3__16vectorIdNS_9allocatorIdEEE18__assign_with_sizeB8nn210108IPdS5_EEvT_T0_l, symObjAddr: 0x7160, symBinAddr: 0x10002F138, symSize: 0x14C }
  - { offset: 0x14E307, size: 0x8, addend: 0x0, symName: __ZN6fuzzer11InputCorpus10AddFeatureEmjb, symObjAddr: 0x8120, symBinAddr: 0x10002FE84, symSize: 0x120 }
  - { offset: 0x14E586, size: 0x8, addend: 0x0, symName: __ZNSt3__16vectorIjNS_9allocatorIjEEE9push_backB8nn210108ERKj, symObjAddr: 0x8240, symBinAddr: 0x10002FFA4, symSize: 0xF8 }
  - { offset: 0x14E9D8, size: 0x8, addend: 0x0, symName: __ZN6fuzzer11InputCorpus22UpdateFeatureFrequencyEPNS_9InputInfoEm, symObjAddr: 0x8338, symBinAddr: 0x10003009C, symSize: 0x124 }
  - { offset: 0x14E9E3, size: 0x8, addend: 0x0, symName: __ZN6fuzzer11InputCorpus22UpdateFeatureFrequencyEPNS_9InputInfoEm, symObjAddr: 0x8338, symBinAddr: 0x10003009C, symSize: 0x124 }
  - { offset: 0x14F317, size: 0x8, addend: 0x0, symName: __ZNSt3__16vectorINS_4pairIjtEENS_9allocatorIS2_EEE20__throw_length_errorB8nn210108Ev, symObjAddr: 0x8B94, symBinAddr: 0x1000308F8, symSize: 0x14 }
  - { offset: 0x14F32F, size: 0x8, addend: 0x0, symName: __ZNSt3__124uniform_int_distributionIlEclIN6fuzzer6RandomEEElRT_RKNS1_10param_typeE, symObjAddr: 0x8BA8, symBinAddr: 0x10003090C, symSize: 0x1B4 }
  - { offset: 0x14F5D7, size: 0x8, addend: 0x0, symName: __ZNSt3__125__independent_bits_engineIN6fuzzer6RandomEmE6__evalENS_17integral_constantIbLb1EEE, symObjAddr: 0x8D5C, symBinAddr: 0x100030AC0, symSize: 0x1F4 }
  - { offset: 0x14FCA1, size: 0x8, addend: 0x0, symName: __GLOBAL__sub_I_FuzzerLoop.cpp, symObjAddr: 0xA170, symBinAddr: 0x100031E74, symSize: 0x44 }
  - { offset: 0x151BB1, size: 0x8, addend: 0x0, symName: __ZN6fuzzer6Merger5ParseERKNSt3__112basic_stringIcNS1_11char_traitsIcEENS1_9allocatorIcEEEEb, symObjAddr: 0x0, symBinAddr: 0x100031EB8, symSize: 0x188 }
  - { offset: 0x161FD8, size: 0x8, addend: 0x0, symName: '__ZNSt3__111__introsortINS_17_ClassicAlgPolicyERZN6fuzzer6Merger5MergeERKNS_3setIjNS_4lessIjEENS_9allocatorIjEEEEPS9_SB_SC_PNS_6vectorINS_12basic_stringIcNS_11char_traitsIcEENS7_IcEEEENS7_ISI_EEEEE3$_0PNS2_13MergeFileInfoELb0EEEvT1_SQ_T0_NS_15iterator_traitsISQ_E15difference_typeEb', symObjAddr: 0x925C, symBinAddr: 0x100038E40, symSize: 0x1430 }
  - { offset: 0x16750A, size: 0x8, addend: 0x0, symName: '__ZNSt3__127__insertion_sort_incompleteB8nn210108INS_17_ClassicAlgPolicyERZN6fuzzer6Merger5MergeERKNS_3setIjNS_4lessIjEENS_9allocatorIjEEEEPS9_SB_SC_PNS_6vectorINS_12basic_stringIcNS_11char_traitsIcEENS7_IcEEEENS7_ISI_EEEEE3$_0PNS2_13MergeFileInfoEEEbT1_SQ_T0_', symObjAddr: 0xAA08, symBinAddr: 0x10003A5EC, symSize: 0x35C }
  - { offset: 0x174B87, size: 0x8, addend: 0x0, symName: __ZNSt3__113__tree_removeB8nn210108IPNS_16__tree_node_baseIPvEEEEvT_S5_, symObjAddr: 0xC958, symBinAddr: 0x10003C40C, symSize: 0x424 }
  - { offset: 0x176677, size: 0x8, addend: 0x0, symName: __ZNSt3__134__uninitialized_allocator_relocateB8nn210108INS_9allocatorIN6fuzzer13MergeFileInfoEEEPS3_EEvRT_T0_S8_S8_, symObjAddr: 0x8A8C, symBinAddr: 0x100038CA4, symSize: 0xF8 }
  - { offset: 0x1766D6, size: 0x8, addend: 0x0, symName: __ZNSt3__134__uninitialized_allocator_relocateB8nn210108INS_9allocatorIN6fuzzer13MergeFileInfoEEEPS3_EEvRT_T0_S8_S8_, symObjAddr: 0x8A8C, symBinAddr: 0x100038CA4, symSize: 0xF8 }
  - { offset: 0x1779A2, size: 0x8, addend: 0x0, symName: '__ZNSt3__17__sort3B8nn210108INS_17_ClassicAlgPolicyERZN6fuzzer6Merger5MergeERKNS_3setIjNS_4lessIjEENS_9allocatorIjEEEEPS9_SB_SC_PNS_6vectorINS_12basic_stringIcNS_11char_traitsIcEENS7_IcEEEENS7_ISI_EEEEE3$_0PNS2_13MergeFileInfoETnNS_9enable_ifIXnt21__use_branchless_sortIT0_T1_EEiE4typeELi0EEEbSS_SS_SS_SR_', symObjAddr: 0xA68C, symBinAddr: 0x10003A270, symSize: 0x150 }
  - { offset: 0x177DBC, size: 0x8, addend: 0x0, symName: __ZNSt3__14swapB8nn210108IN6fuzzer13MergeFileInfoEEENS_9enable_ifIXaasr21is_move_constructibleIT_EE5valuesr18is_move_assignableIS4_EE5valueEvE4typeERS4_S7_, symObjAddr: 0xAD64, symBinAddr: 0x10003A948, symSize: 0x168 }
  - { offset: 0x1786B9, size: 0x8, addend: 0x0, symName: '__ZNSt3__17__sort5B8nn210108INS_17_ClassicAlgPolicyERZN6fuzzer6Merger5MergeERKNS_3setIjNS_4lessIjEENS_9allocatorIjEEEEPS9_SB_SC_PNS_6vectorINS_12basic_stringIcNS_11char_traitsIcEENS7_IcEEEENS7_ISI_EEEEE3$_0PNS2_13MergeFileInfoETnNS_9enable_ifIXnt21__use_branchless_sortIT0_T1_EEiE4typeELi0EEEvSS_SS_SS_SS_SS_SR_', symObjAddr: 0xA8CC, symBinAddr: 0x10003A4B0, symSize: 0x13C }
  - { offset: 0x178A68, size: 0x8, addend: 0x0, symName: '__ZNSt3__17__sort4B8nn210108INS_17_ClassicAlgPolicyERZN6fuzzer6Merger5MergeERKNS_3setIjNS_4lessIjEENS_9allocatorIjEEEEPS9_SB_SC_PNS_6vectorINS_12basic_stringIcNS_11char_traitsIcEENS7_IcEEEENS7_ISI_EEEEE3$_0PNS2_13MergeFileInfoETnNS_9enable_ifIXnt21__use_branchless_sortIT0_T1_EEiE4typeELi0EEEvSS_SS_SS_SS_SR_', symObjAddr: 0xA7DC, symBinAddr: 0x10003A3C0, symSize: 0xF0 }
  - { offset: 0x17C297, size: 0x8, addend: 0x0, symName: '__ZN6fuzzer18ForEachNonZeroByteIZNKS_7TracePC15CollectFeaturesIZNS_6Fuzzer31CrashResistantMergeInternalStepERKNSt3__112basic_stringIcNS4_11char_traitsIcEENS4_9allocatorIcEEEEbE3$_1EEmT_EUlmmhE_EEmPKhSH_mSE_', symObjAddr: 0xB150, symBinAddr: 0x10003AC04, symSize: 0x714 }
  - { offset: 0x17CEED, size: 0x8, addend: 0x0, symName: '__ZN6fuzzer18ForEachNonZeroByteIZNKS_7TracePC15CollectFeaturesIZNS_6Fuzzer31CrashResistantMergeInternalStepERKNSt3__112basic_stringIcNS4_11char_traitsIcEENS4_9allocatorIcEEEEbE3$_2EEmT_EUlmmhE_EEmPKhSH_mSE_', symObjAddr: 0xB9C0, symBinAddr: 0x10003B474, symSize: 0xC5C }
  - { offset: 0x17E063, size: 0x8, addend: 0x0, symName: __ZN6fuzzer19CrashResistantMergeERKNSt3__16vectorINS0_12basic_stringIcNS0_11char_traitsIcEENS0_9allocatorIcEEEENS5_IS7_EEEERKNS1_INS_9SizedFileENS5_ISC_EEEESG_PS9_RKNS0_3setIjNS0_4lessIjEENS5_IjEEEEPSM_SO_SP_RKS7_bb, symObjAddr: 0x59D8, symBinAddr: 0x1000372FC, symSize: 0x16EC }
  - { offset: 0x185747, size: 0x8, addend: 0x0, symName: __ZN6fuzzer6Merger5ParseERKNSt3__112basic_stringIcNS1_11char_traitsIcEENS1_9allocatorIcEEEEb, symObjAddr: 0x0, symBinAddr: 0x100031EB8, symSize: 0x188 }
  - { offset: 0x185A46, size: 0x8, addend: 0x0, symName: __ZN6fuzzer6Merger5ParseERNSt3__113basic_istreamIcNS1_11char_traitsIcEEEEb, symObjAddr: 0x188, symBinAddr: 0x100032040, symSize: 0xB10 }
  - { offset: 0x187737, size: 0x8, addend: 0x0, symName: __ZN6fuzzer6Merger11ParseOrExitERNSt3__113basic_istreamIcNS1_11char_traitsIcEEEEb, symObjAddr: 0xC98, symBinAddr: 0x100032B50, symSize: 0x2C }
  - { offset: 0x18821A, size: 0x8, addend: 0x0, symName: __ZNSt3__16vectorIN6fuzzer13MergeFileInfoENS_9allocatorIS2_EEE6resizeEm, symObjAddr: 0xF90, symBinAddr: 0x100032B7C, symSize: 0xCC }
  - { offset: 0x188A04, size: 0x8, addend: 0x0, symName: __ZNK6fuzzer6Merger28ApproximateMemoryConsumptionEv, symObjAddr: 0x1324, symBinAddr: 0x100032C48, symSize: 0xE8 }
  - { offset: 0x189119, size: 0x8, addend: 0x0, symName: __ZN6fuzzer6Merger11ParseOrExitERNSt3__113basic_istreamIcNS1_11char_traitsIcEEEEb, symObjAddr: 0xC98, symBinAddr: 0x100032B50, symSize: 0x2C }
  - { offset: 0x18983E, size: 0x8, addend: 0x0, symName: __ZNSt3__16vectorIN6fuzzer13MergeFileInfoENS_9allocatorIS2_EEE8__appendEm, symObjAddr: 0x88EC, symBinAddr: 0x100038B04, symSize: 0x18C }
  - { offset: 0x1899C8, size: 0x8, addend: 0x0, symName: __ZNSt3__16vectorIN6fuzzer13MergeFileInfoENS_9allocatorIS2_EEE8__appendEm, symObjAddr: 0x88EC, symBinAddr: 0x100038B04, symSize: 0x18C }
  - { offset: 0x189E74, size: 0x8, addend: 0x0, symName: __ZNSt3__16vectorIN6fuzzer13MergeFileInfoENS_9allocatorIS2_EEE20__throw_length_errorB8nn210108Ev, symObjAddr: 0x8A78, symBinAddr: 0x100038C90, symSize: 0x14 }
  - { offset: 0x189F5F, size: 0x8, addend: 0x0, symName: __ZNK6fuzzer6Merger28ApproximateMemoryConsumptionEv, symObjAddr: 0x1324, symBinAddr: 0x100032C48, symSize: 0xE8 }
  - { offset: 0x189FB7, size: 0x8, addend: 0x0, symName: __ZNK6fuzzer6Merger28ApproximateMemoryConsumptionEv, symObjAddr: 0x1324, symBinAddr: 0x100032C48, symSize: 0xE8 }
  - { offset: 0x18A9C4, size: 0x8, addend: 0x0, symName: __ZN6fuzzer6Merger5MergeERKNSt3__13setIjNS1_4lessIjEENS1_9allocatorIjEEEEPS7_S9_SA_PNS1_6vectorINS1_12basic_stringIcNS1_11char_traitsIcEENS5_IcEEEENS5_ISG_EEEE, symObjAddr: 0x140C, symBinAddr: 0x100032D30, symSize: 0x11CC }
  - { offset: 0x18DE7F, size: 0x8, addend: 0x0, symName: __ZNK6fuzzer6Merger11AllFeaturesEv, symObjAddr: 0x25D8, symBinAddr: 0x100033EFC, symSize: 0x358 }
  - { offset: 0x18E57A, size: 0x8, addend: 0x0, symName: __ZNSt3__16vectorIN6fuzzer13MergeFileInfoENS_9allocatorIS2_EEE16__destroy_vectorclB8nn210108Ev, symObjAddr: 0xAFFC, symBinAddr: 0x10003AAB0, symSize: 0xC4 }
  - { offset: 0x18E83F, size: 0x8, addend: 0x0, symName: __ZNK6fuzzer6Merger11AllFeaturesEv, symObjAddr: 0x25D8, symBinAddr: 0x100033EFC, symSize: 0x358 }
  - { offset: 0x18FF24, size: 0x8, addend: 0x0, symName: __ZN6fuzzer6Fuzzer31CrashResistantMergeInternalStepERKNSt3__112basic_stringIcNS1_11char_traitsIcEENS1_9allocatorIcEEEEb, symObjAddr: 0x2930, symBinAddr: 0x100034254, symSize: 0xFEC }
  - { offset: 0x192EF0, size: 0x8, addend: 0x0, symName: '__ZNK6fuzzer7TracePC15CollectFeaturesIZNS_6Fuzzer31CrashResistantMergeInternalStepERKNSt3__112basic_stringIcNS3_11char_traitsIcEENS3_9allocatorIcEEEEbE3$_1EEmT_', symObjAddr: 0x391C, symBinAddr: 0x100035240, symSize: 0x4C0 }
  - { offset: 0x193997, size: 0x8, addend: 0x0, symName: '__ZNK6fuzzer7TracePC15CollectFeaturesIZNS_6Fuzzer31CrashResistantMergeInternalStepERKNSt3__112basic_stringIcNS3_11char_traitsIcEENS3_9allocatorIcEEEEbE3$_1EEmT_', symObjAddr: 0x391C, symBinAddr: 0x100035240, symSize: 0x4C0 }
  - { offset: 0x194452, size: 0x8, addend: 0x0, symName: '__ZNK6fuzzer7TracePC15CollectFeaturesIZNS_6Fuzzer31CrashResistantMergeInternalStepERKNSt3__112basic_stringIcNS3_11char_traitsIcEENS3_9allocatorIcEEEEbE3$_2EEmT_', symObjAddr: 0x3DDC, symBinAddr: 0x100035700, symSize: 0x6A8 }
  - { offset: 0x1951FB, size: 0x8, addend: 0x0, symName: __ZNSt3__16__treeImNS_4lessImEENS_9allocatorImEEE7destroyEPNS_11__tree_nodeImPvEE, symObjAddr: 0xB0C0, symBinAddr: 0x10003AB74, symSize: 0x48 }
  - { offset: 0x1952F9, size: 0x8, addend: 0x0, symName: __ZNSt3__16__treeIPKN6fuzzer7TracePC12PCTableEntryENS_4lessIS5_EENS_9allocatorIS5_EEE7destroyEPNS_11__tree_nodeIS5_PvEE, symObjAddr: 0xB108, symBinAddr: 0x10003ABBC, symSize: 0x48 }
  - { offset: 0x1953F7, size: 0x8, addend: 0x0, symName: __ZNSt3__16vectorIN6fuzzer13MergeFileInfoENS_9allocatorIS2_EEE16__destroy_vectorclB8nn210108Ev, symObjAddr: 0xAFFC, symBinAddr: 0x10003AAB0, symSize: 0xC4 }
  - { offset: 0x195ED3, size: 0x8, addend: 0x0, symName: '__ZZN6fuzzer6Fuzzer31CrashResistantMergeInternalStepERKNSt3__112basic_stringIcNS1_11char_traitsIcEENS1_9allocatorIcEEEEbENK3$_2clEm', symObjAddr: 0xC61C, symBinAddr: 0x10003C0D0, symSize: 0x140 }
  - { offset: 0x1969C6, size: 0x8, addend: 0x0, symName: __ZN6fuzzer6Merger13SetCoverMergeERKNSt3__13setIjNS1_4lessIjEENS1_9allocatorIjEEEEPS7_S9_SA_PNS1_6vectorINS1_12basic_stringIcNS1_11char_traitsIcEENS5_IcEEEENS5_ISG_EEEE, symObjAddr: 0x4484, symBinAddr: 0x100035DA8, symSize: 0x1554 }
  - { offset: 0x19A86C, size: 0x8, addend: 0x0, symName: __ZNSt3__16vectorIbNS_9allocatorIbEEE18__construct_at_endB8nn210108Emb, symObjAddr: 0xC75C, symBinAddr: 0x10003C210, symSize: 0x1FC }
  - { offset: 0x19A8B9, size: 0x8, addend: 0x0, symName: __ZNSt3__16vectorIbNS_9allocatorIbEEE18__construct_at_endB8nn210108Emb, symObjAddr: 0xC75C, symBinAddr: 0x10003C210, symSize: 0x1FC }
  - { offset: 0x19A8D7, size: 0x8, addend: 0x0, symName: __ZNSt3__16vectorIbNS_9allocatorIbEEE18__construct_at_endB8nn210108Emb, symObjAddr: 0xC75C, symBinAddr: 0x10003C210, symSize: 0x1FC }
  - { offset: 0x19BA5F, size: 0x8, addend: 0x0, symName: __ZNSt3__16vectorIN6fuzzer13MergeFileInfoENS_9allocatorIS2_EEE18__assign_with_sizeB8nn210108IPS2_S7_EEvT_T0_l, symObjAddr: 0xCD7C, symBinAddr: 0x10003C830, symSize: 0x2C0 }
  - { offset: 0x19C950, size: 0x8, addend: 0x0, symName: __ZNSt3__16vectorIN6fuzzer13MergeFileInfoENS_9allocatorIS2_EEE13__vdeallocateEv, symObjAddr: 0xD03C, symBinAddr: 0x10003CAF0, symSize: 0xB4 }
  - { offset: 0x19CEAB, size: 0x8, addend: 0x0, symName: __ZNSt3__113unordered_setINS_12basic_stringIcNS_11char_traitsIcEENS_9allocatorIcEEEENS_4hashIS6_EENS_8equal_toIS6_EENS4_IS6_EEEC2ERKSC_, symObjAddr: 0x7A4C, symBinAddr: 0x1000389E8, symSize: 0x11C }
  - { offset: 0x19DE84, size: 0x8, addend: 0x0, symName: __ZNSt3__16vectorIN6fuzzer13MergeFileInfoENS_9allocatorIS2_EEE18__insert_with_sizeB8nn210108INS_11__wrap_iterIPS2_EES9_EES9_NS7_IPKS2_EET_T0_l, symObjAddr: 0xD20C, symBinAddr: 0x10003CCC0, symSize: 0x354 }
  - { offset: 0x19EB7E, size: 0x8, addend: 0x0, symName: __ZNSt3__16vectorIN6fuzzer13MergeFileInfoENS_9allocatorIS2_EEE27__insert_assign_n_uncheckedB8nn210108INS_11__wrap_iterIPS2_EETnNS_9enable_ifIXntsr7is_sameIODTdeclsr3stdE7declvalIRT_EEEOS2_EE5valueEiE4typeELi0EEEvSB_lS8_, symObjAddr: 0xD560, symBinAddr: 0x10003D014, symSize: 0x14C }
  - { offset: 0x19F83F, size: 0x8, addend: 0x0, symName: __ZNSt3__113unordered_setINS_12basic_stringIcNS_11char_traitsIcEENS_9allocatorIcEEEENS_4hashIS6_EENS_8equal_toIS6_EENS4_IS6_EEEC2ERKSC_, symObjAddr: 0x7A4C, symBinAddr: 0x1000389E8, symSize: 0x11C }
  - { offset: 0x1A09FF, size: 0x8, addend: 0x0, symName: __ZNSt3__114__split_bufferIN6fuzzer13MergeFileInfoERNS_9allocatorIS2_EEED2Ev, symObjAddr: 0x8B84, symBinAddr: 0x100038D9C, symSize: 0xA4 }
  - { offset: 0x1A0F86, size: 0x8, addend: 0x0, symName: __ZNSt3__16vectorIN6fuzzer13MergeFileInfoENS_9allocatorIS2_EEE20__throw_length_errorB8nn210108Ev, symObjAddr: 0x8A78, symBinAddr: 0x100038C90, symSize: 0x14 }
  - { offset: 0x1A0F9E, size: 0x8, addend: 0x0, symName: __ZNSt3__134__uninitialized_allocator_relocateB8nn210108INS_9allocatorIN6fuzzer13MergeFileInfoEEEPS3_EEvRT_T0_S8_S8_, symObjAddr: 0x8A8C, symBinAddr: 0x100038CA4, symSize: 0xF8 }
  - { offset: 0x1A1795, size: 0x8, addend: 0x0, symName: '__ZZNK6fuzzer7TracePC15CollectFeaturesIZNS_6Fuzzer31CrashResistantMergeInternalStepERKNSt3__112basic_stringIcNS3_11char_traitsIcEENS3_9allocatorIcEEEEbE3$_1EEmT_ENKUlmmhE_clEmmh', symObjAddr: 0xB864, symBinAddr: 0x10003B318, symSize: 0x15C }
  - { offset: 0x1A1E1D, size: 0x8, addend: 0x0, symName: __ZNSt3__16vectorIN6fuzzer13MergeFileInfoENS_9allocatorIS2_EEE13__vdeallocateEv, symObjAddr: 0xD03C, symBinAddr: 0x10003CAF0, symSize: 0xB4 }
  - { offset: 0x1A23D2, size: 0x8, addend: 0x0, symName: __ZN6fuzzer13MergeFileInfoC2ERKS0_, symObjAddr: 0xD0F0, symBinAddr: 0x10003CBA4, symSize: 0x11C }
  - { offset: 0x1A2B93, size: 0x8, addend: 0x0, symName: __ZNSt3__16vectorIN6fuzzer13MergeFileInfoENS_9allocatorIS2_EEE18__insert_with_sizeB8nn210108INS_11__wrap_iterIPS2_EES9_EES9_NS7_IPKS2_EET_T0_l, symObjAddr: 0xD20C, symBinAddr: 0x10003CCC0, symSize: 0x354 }
  - { offset: 0x1A2E38, size: 0x8, addend: 0x0, symName: __ZNKSt3__120__move_backward_implINS_17_ClassicAlgPolicyEEclB8nn210108IPN6fuzzer13MergeFileInfoES6_S6_EENS_4pairIT_T1_EES8_T0_S9_, symObjAddr: 0xD6AC, symBinAddr: 0x10003D160, symSize: 0x130 }
  - { offset: 0x1A34E6, size: 0x8, addend: 0x0, symName: __ZNSt3__16vectorIN6fuzzer13MergeFileInfoENS_9allocatorIS2_EEE27__insert_assign_n_uncheckedB8nn210108INS_11__wrap_iterIPS2_EETnNS_9enable_ifIXntsr7is_sameIODTdeclsr3stdE7declvalIRT_EEEOS2_EE5valueEiE4typeELi0EEEvSB_lS8_, symObjAddr: 0xD560, symBinAddr: 0x10003D014, symSize: 0x14C }
  - { offset: 0x1A353F, size: 0x8, addend: 0x0, symName: __ZNSt3__16vectorIN6fuzzer13MergeFileInfoENS_9allocatorIS2_EEE27__insert_assign_n_uncheckedB8nn210108INS_11__wrap_iterIPS2_EETnNS_9enable_ifIXntsr7is_sameIODTdeclsr3stdE7declvalIRT_EEEOS2_EE5valueEiE4typeELi0EEEvSB_lS8_, symObjAddr: 0xD560, symBinAddr: 0x10003D014, symSize: 0x14C }
  - { offset: 0x1A5D10, size: 0x8, addend: 0x0, symName: __ZN6fuzzer18MutationDispatcherC2ERNS_6RandomERKNS_14FuzzingOptionsE, symObjAddr: 0x0, symBinAddr: 0x10003D290, symSize: 0x360 }
  - { offset: 0x1A5D29, size: 0x8, addend: 0x0, symName: __ZN6fuzzer10Dictionary12kMaxDictSizeE, symObjAddr: 0x5688, symBinAddr: 0x100050A70, symSize: 0x0 }
  - { offset: 0x1A6A15, size: 0x8, addend: 0x0, symName: __ZN6fuzzerL6RandChERNS_6RandomE, symObjAddr: 0x1AA8, symBinAddr: 0x10003ED38, symSize: 0xF0 }
  - { offset: 0x1A6A56, size: 0x8, addend: 0x0, symName: __ZN6fuzzerL6RandChERNS_6RandomE, symObjAddr: 0x1AA8, symBinAddr: 0x10003ED38, symSize: 0xF0 }
  - { offset: 0x1A6A73, size: 0x8, addend: 0x0, symName: __ZN6fuzzerL6RandChERNS_6RandomE, symObjAddr: 0x1AA8, symBinAddr: 0x10003ED38, symSize: 0xF0 }
  - { offset: 0x1A6A90, size: 0x8, addend: 0x0, symName: __ZN6fuzzerL6RandChERNS_6RandomE, symObjAddr: 0x1AA8, symBinAddr: 0x10003ED38, symSize: 0xF0 }
  - { offset: 0x1A6CBA, size: 0x8, addend: 0x0, symName: __ZN6fuzzer19ChangeBinaryIntegerItEEmPhmRNS_6RandomE, symObjAddr: 0x33B4, symBinAddr: 0x100040644, symSize: 0x230 }
  - { offset: 0x1A7212, size: 0x8, addend: 0x0, symName: __ZN6fuzzer19ChangeBinaryIntegerIyEEmPhmRNS_6RandomE, symObjAddr: 0x2F60, symBinAddr: 0x1000401F0, symSize: 0x22C }
  - { offset: 0x1A776A, size: 0x8, addend: 0x0, symName: __ZN6fuzzer19ChangeBinaryIntegerIhEEmPhmRNS_6RandomE, symObjAddr: 0x35E4, symBinAddr: 0x100040874, symSize: 0x200 }
  - { offset: 0x1A7CA3, size: 0x8, addend: 0x0, symName: __ZN6fuzzer19ChangeBinaryIntegerIjEEmPhmRNS_6RandomE, symObjAddr: 0x318C, symBinAddr: 0x10004041C, symSize: 0x228 }
  - { offset: 0x1B111D, size: 0x8, addend: 0x0, symName: __ZNSt3__16vectorIN6fuzzer18MutationDispatcher7MutatorENS_9allocatorIS3_EEE18__insert_with_sizeB8nn210108IPKS3_S9_EENS_11__wrap_iterIPS3_EENSA_IS9_EET_T0_l, symObjAddr: 0x49D0, symBinAddr: 0x100041934, symSize: 0x474 }
  - { offset: 0x1B1A65, size: 0x8, addend: 0x0, symName: __ZN6fuzzer18MutationDispatcherC2ERNS_6RandomERKNS_14FuzzingOptionsE, symObjAddr: 0x0, symBinAddr: 0x10003D290, symSize: 0x360 }
  - { offset: 0x1B22C6, size: 0x8, addend: 0x0, symName: __ZNSt3__16vectorIN6fuzzer18MutationDispatcher7MutatorENS_9allocatorIS3_EEE18__insert_with_sizeB8nn210108IPKS3_S9_EENS_11__wrap_iterIPS3_EENSA_IS9_EET_T0_l, symObjAddr: 0x49D0, symBinAddr: 0x100041934, symSize: 0x474 }
  - { offset: 0x1B2E91, size: 0x8, addend: 0x0, symName: __ZNSt3__16vectorIN6fuzzer18MutationDispatcher7MutatorENS_9allocatorIS3_EEE20__throw_length_errorB8nn210108Ev, symObjAddr: 0x4E44, symBinAddr: 0x100041DA8, symSize: 0x14 }
  - { offset: 0x1B2EAE, size: 0x8, addend: 0x0, symName: __ZNSt3__16vectorIN6fuzzer18MutationDispatcher7MutatorENS_9allocatorIS3_EEE9push_backB8nn210108EOS3_, symObjAddr: 0x12CC, symBinAddr: 0x10003E55C, symSize: 0x130 }
  - { offset: 0x1B3305, size: 0x8, addend: 0x0, symName: __ZN6fuzzer18MutationDispatcher22Mutate_AddWordFromTORCEPhmm, symObjAddr: 0x13FC, symBinAddr: 0x10003E68C, symSize: 0x41C }
  - { offset: 0x1B3310, size: 0x8, addend: 0x0, symName: __ZNSt3__16vectorIN6fuzzer18MutationDispatcher7MutatorENS_9allocatorIS3_EEE18__assign_with_sizeB8nn210108IPS3_S8_EEvT_T0_l, symObjAddr: 0x4E58, symBinAddr: 0x100041DBC, symSize: 0x180 }
  - { offset: 0x1B3DF0, size: 0x8, addend: 0x0, symName: __ZNSt3__16vectorIhNS_9allocatorIhEEE8__appendEm, symObjAddr: 0x4FD8, symBinAddr: 0x100041F3C, symSize: 0x220 }
  - { offset: 0x1B3EF1, size: 0x8, addend: 0x0, symName: __ZN6fuzzer18MutationDispatcher17Mutate_EraseBytesEPhmm, symObjAddr: 0x360, symBinAddr: 0x10003D5F0, symSize: 0xE4 }
  - { offset: 0x1B4146, size: 0x8, addend: 0x0, symName: __ZN6fuzzer18MutationDispatcher17Mutate_InsertByteEPhmm, symObjAddr: 0x444, symBinAddr: 0x10003D6D4, symSize: 0xB8 }
  - { offset: 0x1B42F5, size: 0x8, addend: 0x0, symName: __ZN6fuzzer18MutationDispatcher26Mutate_InsertRepeatedBytesEPhmm, symObjAddr: 0x4FC, symBinAddr: 0x10003D78C, symSize: 0x248 }
  - { offset: 0x1B464A, size: 0x8, addend: 0x0, symName: __ZN6fuzzer18MutationDispatcher17Mutate_ChangeByteEPhmm, symObjAddr: 0x744, symBinAddr: 0x10003D9D4, symSize: 0xAC }
  - { offset: 0x1B47BA, size: 0x8, addend: 0x0, symName: __ZN6fuzzer18MutationDispatcher16Mutate_ChangeBitEPhmm, symObjAddr: 0x7F0, symBinAddr: 0x10003DA80, symSize: 0xC0 }
  - { offset: 0x1B4AE7, size: 0x8, addend: 0x0, symName: __ZN6fuzzer18MutationDispatcher19Mutate_ShuffleBytesEPhmm, symObjAddr: 0x8B0, symBinAddr: 0x10003DB40, symSize: 0x140 }
  - { offset: 0x1B503F, size: 0x8, addend: 0x0, symName: __ZN6fuzzer18MutationDispatcher25Mutate_ChangeASCIIIntegerEPhmm, symObjAddr: 0x9F0, symBinAddr: 0x10003DC80, symSize: 0x238 }
  - { offset: 0x1B5444, size: 0x8, addend: 0x0, symName: __ZN6fuzzer18MutationDispatcher26Mutate_ChangeBinaryIntegerEPhmm, symObjAddr: 0xC28, symBinAddr: 0x10003DEB8, symSize: 0xC8 }
  - { offset: 0x1B562B, size: 0x8, addend: 0x0, symName: __ZN6fuzzer18MutationDispatcher15Mutate_CopyPartEPhmm, symObjAddr: 0xCF0, symBinAddr: 0x10003DF80, symSize: 0x174 }
  - { offset: 0x1B5A2B, size: 0x8, addend: 0x0, symName: __ZN6fuzzer18MutationDispatcher12InsertPartOfEPKhmPhmm, symObjAddr: 0x2D78, symBinAddr: 0x100040008, symSize: 0x1E8 }
  - { offset: 0x1B5FB9, size: 0x8, addend: 0x0, symName: __ZN6fuzzer18MutationDispatcher16Mutate_CrossOverEPhmm, symObjAddr: 0xE64, symBinAddr: 0x10003E0F4, symSize: 0x2CC }
  - { offset: 0x1B65AD, size: 0x8, addend: 0x0, symName: __ZNSt3__16vectorIhNS_9allocatorIhEEE8__appendEm, symObjAddr: 0x4FD8, symBinAddr: 0x100041F3C, symSize: 0x220 }
  - { offset: 0x1B6A3A, size: 0x8, addend: 0x0, symName: __ZN6fuzzer18MutationDispatcher10CopyPartOfEPKhmPhm, symObjAddr: 0x2C48, symBinAddr: 0x10003FED8, symSize: 0x130 }
  - { offset: 0x1B6E08, size: 0x8, addend: 0x0, symName: __ZN6fuzzer18MutationDispatcher34Mutate_AddWordFromManualDictionaryEPhmm, symObjAddr: 0x1130, symBinAddr: 0x10003E3C0, symSize: 0xCC }
  - { offset: 0x1B700F, size: 0x8, addend: 0x0, symName: __ZN6fuzzer18MutationDispatcher20ApplyDictionaryEntryEPhmmRNS_15DictionaryEntryE, symObjAddr: 0x1C6C, symBinAddr: 0x10003EEFC, symSize: 0x22C }
  - { offset: 0x1B74EE, size: 0x8, addend: 0x0, symName: __ZNSt3__16vectorIPN6fuzzer15DictionaryEntryENS_9allocatorIS3_EEE9push_backB8nn210108EOS3_, symObjAddr: 0x2B50, symBinAddr: 0x10003FDE0, symSize: 0xF8 }
  - { offset: 0x1B794B, size: 0x8, addend: 0x0, symName: __ZN6fuzzer18MutationDispatcher10CopyPartOfEPKhmPhm, symObjAddr: 0x2C48, symBinAddr: 0x10003FED8, symSize: 0x130 }
  - { offset: 0x1B7956, size: 0x8, addend: 0x0, symName: __ZN6fuzzer18MutationDispatcher42Mutate_AddWordFromPersistentAutoDictionaryEPhmm, symObjAddr: 0x11FC, symBinAddr: 0x10003E48C, symSize: 0xD0 }
  - { offset: 0x1B7EF2, size: 0x8, addend: 0x0, symName: __ZNSt3__16vectorIN6fuzzer18MutationDispatcher7MutatorENS_9allocatorIS3_EEE20__throw_length_errorB8nn210108Ev, symObjAddr: 0x4E44, symBinAddr: 0x100041DA8, symSize: 0x14 }
  - { offset: 0x1B7F0A, size: 0x8, addend: 0x0, symName: __ZNSt3__16vectorIN6fuzzer18MutationDispatcher7MutatorENS_9allocatorIS3_EEE18__assign_with_sizeB8nn210108IPS3_S8_EEvT_T0_l, symObjAddr: 0x4E58, symBinAddr: 0x100041DBC, symSize: 0x180 }
  - { offset: 0x1B8079, size: 0x8, addend: 0x0, symName: __ZN6fuzzer18MutationDispatcher22Mutate_AddWordFromTORCEPhmm, symObjAddr: 0x13FC, symBinAddr: 0x10003E68C, symSize: 0x41C }
  - { offset: 0x1B8909, size: 0x8, addend: 0x0, symName: __ZN6fuzzer18MutationDispatcher26MakeDictionaryEntryFromCMPIjEENS_15DictionaryEntryET_S3_PKhm, symObjAddr: 0x29FC, symBinAddr: 0x10003FC8C, symSize: 0x154 }
  - { offset: 0x1B8D85, size: 0x8, addend: 0x0, symName: __ZN6fuzzer18MutationDispatcher26MakeDictionaryEntryFromCMPIyEENS_15DictionaryEntryET_S3_PKhm, symObjAddr: 0x2754, symBinAddr: 0x10003F9E4, symSize: 0x154 }
  - { offset: 0x1B9201, size: 0x8, addend: 0x0, symName: __ZN6fuzzer18MutationDispatcher26MakeDictionaryEntryFromCMPEPKvS2_S2_S2_mPKhm, symObjAddr: 0x1E98, symBinAddr: 0x10003F128, symSize: 0x89C }
  - { offset: 0x1B99D1, size: 0x8, addend: 0x0, symName: __ZN6fuzzer18MutationDispatcher26MakeDictionaryEntryFromCMPItEENS_15DictionaryEntryET_S3_PKhm, symObjAddr: 0x28A8, symBinAddr: 0x10003FB38, symSize: 0x154 }
  - { offset: 0x1B9E5A, size: 0x8, addend: 0x0, symName: __ZN6fuzzer18MutationDispatcher13Mutate_CustomEPhmm, symObjAddr: 0x1818, symBinAddr: 0x10003EAA8, symSize: 0xC4 }
  - { offset: 0x1B9F9E, size: 0x8, addend: 0x0, symName: __ZN6fuzzer18MutationDispatcher22Mutate_CustomCrossOverEPhmm, symObjAddr: 0x18DC, symBinAddr: 0x10003EB6C, symSize: 0x1C8 }
  - { offset: 0x1BA32C, size: 0x8, addend: 0x0, symName: __ZN6fuzzer18MutationDispatcherC1ERNS_6RandomERKNS_14FuzzingOptionsE, symObjAddr: 0x1AA4, symBinAddr: 0x10003ED34, symSize: 0x4 }
  - { offset: 0x1BA376, size: 0x8, addend: 0x0, symName: __ZN6fuzzer18MutationDispatcherC1ERNS_6RandomERKNS_14FuzzingOptionsE, symObjAddr: 0x1AA4, symBinAddr: 0x10003ED34, symSize: 0x4 }
  - { offset: 0x1BA397, size: 0x8, addend: 0x0, symName: __ZN6fuzzer18MutationDispatcher21AddWordFromDictionaryERNS_10DictionaryEPhmm, symObjAddr: 0x1B98, symBinAddr: 0x10003EE28, symSize: 0xD4 }
  - { offset: 0x1BA629, size: 0x8, addend: 0x0, symName: __ZN6fuzzer18MutationDispatcher26MakeDictionaryEntryFromCMPERKNS_9FixedWordILm64EEES4_PKhm, symObjAddr: 0x2734, symBinAddr: 0x10003F9C4, symSize: 0x20 }
  - { offset: 0x1BAAB4, size: 0x8, addend: 0x0, symName: __ZNSt3__16vectorIPN6fuzzer15DictionaryEntryENS_9allocatorIS3_EEE20__throw_length_errorB8nn210108Ev, symObjAddr: 0x55B4, symBinAddr: 0x10004215C, symSize: 0x14 }
  - { offset: 0x1BAACC, size: 0x8, addend: 0x0, symName: __ZNSt3__16vectorIN6fuzzer15DictionaryEntryENS_9allocatorIS2_EEE20__throw_length_errorB8nn210108Ev, symObjAddr: 0x55C8, symBinAddr: 0x100042170, symSize: 0x14 }
  - { offset: 0x1BAB7D, size: 0x8, addend: 0x0, symName: __ZN6fuzzer18MutationDispatcher21StartMutationSequenceEv, symObjAddr: 0x37E4, symBinAddr: 0x100040A74, symSize: 0x18 }
  - { offset: 0x1BADB4, size: 0x8, addend: 0x0, symName: __ZN6fuzzer18MutationDispatcher32RecordSuccessfulMutationSequenceEv, symObjAddr: 0x37FC, symBinAddr: 0x100040A8C, symSize: 0x130 }
  - { offset: 0x1BB402, size: 0x8, addend: 0x0, symName: __ZN6fuzzer18MutationDispatcher26PrintRecommendedDictionaryEv, symObjAddr: 0x392C, symBinAddr: 0x100040BBC, symSize: 0x268 }
  - { offset: 0x1BBB46, size: 0x8, addend: 0x0, symName: __ZN6fuzzer18MutationDispatcher21PrintMutationSequenceEb, symObjAddr: 0x3B94, symBinAddr: 0x100040E24, symSize: 0x134 }
  - { offset: 0x1BBB51, size: 0x8, addend: 0x0, symName: __ZNSt3__16vectorIN6fuzzer15DictionaryEntryENS_9allocatorIS2_EEE20__throw_length_errorB8nn210108Ev, symObjAddr: 0x55C8, symBinAddr: 0x100042170, symSize: 0x14 }
  - { offset: 0x1BBBD0, size: 0x8, addend: 0x0, symName: __ZN6fuzzer18MutationDispatcher21PrintMutationSequenceEb, symObjAddr: 0x3B94, symBinAddr: 0x100040E24, symSize: 0x134 }
  - { offset: 0x1BBE5D, size: 0x8, addend: 0x0, symName: __ZN6fuzzer18MutationDispatcher16MutationSequenceEv, symObjAddr: 0x3CC8, symBinAddr: 0x100040F58, symSize: 0x6C }
  - { offset: 0x1BC051, size: 0x8, addend: 0x0, symName: __ZN6fuzzer18MutationDispatcher6MutateEPhmm, symObjAddr: 0x3D34, symBinAddr: 0x100040FC4, symSize: 0x154 }
  - { offset: 0x1BC276, size: 0x8, addend: 0x0, symName: __ZNSt3__16vectorIN6fuzzer18MutationDispatcher7MutatorENS_9allocatorIS3_EEE9push_backB8nn210108ERKS3_, symObjAddr: 0x412C, symBinAddr: 0x1000413BC, symSize: 0x130 }
  - { offset: 0x1BC6CD, size: 0x8, addend: 0x0, symName: __ZN6fuzzer18MutationDispatcher14MutateWithMaskEPhmmRKNSt3__16vectorIhNS2_9allocatorIhEEEE, symObjAddr: 0x425C, symBinAddr: 0x1000414EC, symSize: 0x3D4 }
  - { offset: 0x1BC6D8, size: 0x8, addend: 0x0, symName: __ZN6fuzzer18MutationDispatcher10MutateImplEPhmmRNSt3__16vectorINS0_7MutatorENS2_9allocatorIS4_EEEE, symObjAddr: 0x3E88, symBinAddr: 0x100041118, symSize: 0x150 }
  - { offset: 0x1BC8C6, size: 0x8, addend: 0x0, symName: __ZN6fuzzer18MutationDispatcher13DefaultMutateEPhmm, symObjAddr: 0x3FD8, symBinAddr: 0x100041268, symSize: 0x154 }
  - { offset: 0x1BCC78, size: 0x8, addend: 0x0, symName: __ZN6fuzzer18MutationDispatcher14MutateWithMaskEPhmmRKNSt3__16vectorIhNS2_9allocatorIhEEEE, symObjAddr: 0x425C, symBinAddr: 0x1000414EC, symSize: 0x3D4 }
  - { offset: 0x1BCE70, size: 0x8, addend: 0x0, symName: __ZN6fuzzer18MutationDispatcher25AddWordToManualDictionaryERKNS_9FixedWordILm64EEE, symObjAddr: 0x4630, symBinAddr: 0x1000418C0, symSize: 0x74 }
  - { offset: 0x1BFAA3, size: 0x8, addend: 0x0, symName: __ZN6fuzzer11ComputeSHA1EPKhmPh, symObjAddr: 0x0, symBinAddr: 0x100042184, symSize: 0x15C }
  - { offset: 0x1BFAC3, size: 0x8, addend: 0x0, symName: __ZN6fuzzer11ComputeSHA1EPKhmPh, symObjAddr: 0x0, symBinAddr: 0x100042184, symSize: 0x15C }
  - { offset: 0x1BFCE8, size: 0x8, addend: 0x0, symName: __ZN6fuzzer12Sha1ToStringEPKh, symObjAddr: 0x15C, symBinAddr: 0x1000422E0, symSize: 0x2C8 }
  - { offset: 0x1C02F1, size: 0x8, addend: 0x0, symName: __ZN6fuzzer4HashERKNSt3__16vectorIhNS0_9allocatorIhEEEE, symObjAddr: 0x424, symBinAddr: 0x1000425A8, symSize: 0x50 }
  - { offset: 0x1C517E, size: 0x8, addend: 0x0, symName: __ZN12_GLOBAL__N_117sha1_addUncountedEPNS_7sha1nfoEj, symObjAddr: 0x474, symBinAddr: 0x1000425F8, symSize: 0x174 }
  - { offset: 0x1C78B0, size: 0x8, addend: 0x0, symName: ___sancov_lowest_stack, symObjAddr: 0x3330, symBinAddr: 0x10005FD00, symSize: 0x0 }
  - { offset: 0x1C78D4, size: 0x8, addend: 0x0, symName: __ZN6fuzzer3TPCE, symObjAddr: 0x54E00, symBinAddr: 0x100061800, symSize: 0x0 }
  - { offset: 0x1C8204, size: 0x8, addend: 0x0, symName: __ZN6fuzzer34WarnAboutDeprecatedInstrumentationEPKc, symObjAddr: 0x1DD8, symBinAddr: 0x100044544, symSize: 0x20 }
  - { offset: 0x1C824A, size: 0x8, addend: 0x0, symName: ___sanitizer_cov_trace_pc_guard, symObjAddr: 0x1DF8, symBinAddr: 0x100044564, symSize: 0x28 }
  - { offset: 0x1CF39A, size: 0x8, addend: 0x0, symName: __ZNSt3__112__hash_tableINS_17__hash_value_typeImmEENS_22__unordered_map_hasherImNS_4pairIKmmEENS_4hashImEENS_8equal_toImEELb1EEENS_21__unordered_map_equalImS6_SA_S8_Lb1EEENS_9allocatorIS6_EEE11__do_rehashILb1EEEvm, symObjAddr: 0x3094, symBinAddr: 0x1000457A4, symSize: 0x1CC }
  - { offset: 0x1CFD39, size: 0x8, addend: 0x0, symName: __ZN6fuzzer7TracePCD1Ev, symObjAddr: 0x0, symBinAddr: 0x10004276C, symSize: 0x70 }
  - { offset: 0x1D015E, size: 0x8, addend: 0x0, symName: __ZN6fuzzer7TracePC18GetTotalPCCoverageEv, symObjAddr: 0x70, symBinAddr: 0x1000427DC, symSize: 0xC }
  - { offset: 0x1D018A, size: 0x8, addend: 0x0, symName: __ZN6fuzzer7TracePC18GetTotalPCCoverageEv, symObjAddr: 0x70, symBinAddr: 0x1000427DC, symSize: 0xC }
  - { offset: 0x1D01F1, size: 0x8, addend: 0x0, symName: __ZN6fuzzer7TracePC28HandleInline8bitCountersInitEPhS1_, symObjAddr: 0x7C, symBinAddr: 0x1000427E8, symSize: 0x1A8 }
  - { offset: 0x1D03C7, size: 0x8, addend: 0x0, symName: __ZN6fuzzer7TracePC13HandlePCsInitEPKmS2_, symObjAddr: 0x224, symBinAddr: 0x100042990, symSize: 0x48 }
  - { offset: 0x1D0404, size: 0x8, addend: 0x0, symName: __ZN6fuzzer7TracePC15PrintModuleInfoEv, symObjAddr: 0x26C, symBinAddr: 0x1000429D8, symSize: 0x1A8 }
  - { offset: 0x1D05D5, size: 0x8, addend: 0x0, symName: '__ZNK6fuzzer7TracePC15CollectFeaturesIZNS0_15PrintModuleInfoEvE3$_0EEmT_', symObjAddr: 0x414, symBinAddr: 0x100042B80, symSize: 0xF4 }
  - { offset: 0x1D05E6, size: 0x8, addend: 0x0, symName: '__ZNK6fuzzer7TracePC15CollectFeaturesIZNS0_15PrintModuleInfoEvE3$_0EEmT_', symObjAddr: 0x414, symBinAddr: 0x100042B80, symSize: 0xF4 }
  - { offset: 0x1D085A, size: 0x8, addend: 0x0, symName: __ZN6fuzzer7TracePC18HandleCallerCalleeEmm, symObjAddr: 0x508, symBinAddr: 0x100042C74, symSize: 0x4C }
  - { offset: 0x1D08F2, size: 0x8, addend: 0x0, symName: __ZN6fuzzer7TracePC20GetNextInstructionPcEm, symObjAddr: 0x554, symBinAddr: 0x100042CC0, symSize: 0x8 }
  - { offset: 0x1D0933, size: 0x8, addend: 0x0, symName: __ZN6fuzzer7TracePC17UpdateObservedPCsEv, symObjAddr: 0x55C, symBinAddr: 0x100042CC8, symSize: 0x5F8 }
  - { offset: 0x1D1594, size: 0x8, addend: 0x0, symName: __ZN6fuzzer7TracePC15PCTableEntryIdxEPKNS0_12PCTableEntryE, symObjAddr: 0xB54, symBinAddr: 0x1000432C0, symSize: 0x54 }
  - { offset: 0x1D1D89, size: 0x8, addend: 0x0, symName: __ZNSt3__112__hash_tableINS_17__hash_value_typeImmEENS_22__unordered_map_hasherImNS_4pairIKmmEENS_4hashImEENS_8equal_toImEELb1EEENS_21__unordered_map_equalImS6_SA_S8_Lb1EEENS_9allocatorIS6_EEE25__emplace_unique_key_argsImJRKNS_21piecewise_construct_tENS_5tupleIJRS5_EEENSL_IJEEEEEENS4_INS_15__hash_iteratorIPNS_11__hash_nodeIS2_PvEEEEbEERKT_DpOT0_, symObjAddr: 0x2D5C, symBinAddr: 0x100045480, symSize: 0x324 }
  - { offset: 0x1D240A, size: 0x8, addend: 0x0, symName: __ZN6fuzzer7TracePC15PCTableEntryIdxEPKNS0_12PCTableEntryE, symObjAddr: 0xB54, symBinAddr: 0x1000432C0, symSize: 0x54 }
  - { offset: 0x1D2479, size: 0x8, addend: 0x0, symName: __ZN6fuzzer7TracePC17PCTableEntryByIdxEm, symObjAddr: 0xBA8, symBinAddr: 0x100043314, symSize: 0x48 }
  - { offset: 0x1D2A0B, size: 0x8, addend: 0x0, symName: __ZN6fuzzer7TracePC16SetFocusFunctionERKNSt3__112basic_stringIcNS1_11char_traitsIcEENS1_9allocatorIcEEEE, symObjAddr: 0xBF0, symBinAddr: 0x10004335C, symSize: 0x384 }
  - { offset: 0x1D351E, size: 0x8, addend: 0x0, symName: __ZN6fuzzer7TracePC21ObservedFocusFunctionEv, symObjAddr: 0xF74, symBinAddr: 0x1000436E0, symSize: 0x24 }
  - { offset: 0x1D3584, size: 0x8, addend: 0x0, symName: __ZTW21__sancov_lowest_stack, symObjAddr: 0x32D4, symBinAddr: 0x100045970, symSize: 0x20 }
  - { offset: 0x1D358F, size: 0x8, addend: 0x0, symName: __ZN6fuzzer7TracePC21ObservedFocusFunctionEv, symObjAddr: 0xF74, symBinAddr: 0x1000436E0, symSize: 0x24 }
  - { offset: 0x1D35B9, size: 0x8, addend: 0x0, symName: __ZN6fuzzer7TracePC13PrintCoverageEb, symObjAddr: 0xF98, symBinAddr: 0x100043704, symSize: 0xA58 }
  - { offset: 0x1D59DA, size: 0x8, addend: 0x0, symName: __ZN6fuzzer7TracePC17AddValueForMemcmpEPvPKvS3_mb, symObjAddr: 0x19F0, symBinAddr: 0x10004415C, symSize: 0x2C4 }
  - { offset: 0x1D5DE3, size: 0x8, addend: 0x0, symName: __ZN6fuzzer7TracePC17AddValueForMemcmpEPvPKvS3_mb, symObjAddr: 0x19F0, symBinAddr: 0x10004415C, symSize: 0x2C4 }
  - { offset: 0x1D6140, size: 0x8, addend: 0x0, symName: __ZN6fuzzer7TracePC19ClearInlineCountersEv, symObjAddr: 0x1CB4, symBinAddr: 0x100044420, symSize: 0xB8 }
  - { offset: 0x1D62BE, size: 0x8, addend: 0x0, symName: __ZN6fuzzer7TracePC18RecordInitialStackEv, symObjAddr: 0x1D6C, symBinAddr: 0x1000444D8, symSize: 0x3C }
  - { offset: 0x1D6306, size: 0x8, addend: 0x0, symName: __ZNK6fuzzer7TracePC17GetMaxStackOffsetEv, symObjAddr: 0x1DA8, symBinAddr: 0x100044514, symSize: 0x30 }
  - { offset: 0x1D6335, size: 0x8, addend: 0x0, symName: ___sanitizer_cov_trace_pc_guard, symObjAddr: 0x1DF8, symBinAddr: 0x100044564, symSize: 0x28 }
  - { offset: 0x1D639E, size: 0x8, addend: 0x0, symName: ___sanitizer_cov_trace_pc, symObjAddr: 0x1E20, symBinAddr: 0x10004458C, symSize: 0x28 }
  - { offset: 0x1D63AF, size: 0x8, addend: 0x0, symName: ___sanitizer_cov_trace_pc, symObjAddr: 0x1E20, symBinAddr: 0x10004458C, symSize: 0x28 }
  - { offset: 0x1D6407, size: 0x8, addend: 0x0, symName: ___sanitizer_cov_trace_pc_guard_init, symObjAddr: 0x1E48, symBinAddr: 0x1000445B4, symSize: 0x28 }
  - { offset: 0x1D6418, size: 0x8, addend: 0x0, symName: ___sanitizer_cov_trace_pc_guard_init, symObjAddr: 0x1E48, symBinAddr: 0x1000445B4, symSize: 0x28 }
  - { offset: 0x1D6492, size: 0x8, addend: 0x0, symName: ___sanitizer_cov_8bit_counters_init, symObjAddr: 0x1E70, symBinAddr: 0x1000445DC, symSize: 0x14 }
  - { offset: 0x1D64A3, size: 0x8, addend: 0x0, symName: ___sanitizer_cov_8bit_counters_init, symObjAddr: 0x1E70, symBinAddr: 0x1000445DC, symSize: 0x14 }
  - { offset: 0x1D6542, size: 0x8, addend: 0x0, symName: ___sanitizer_cov_pcs_init, symObjAddr: 0x1E84, symBinAddr: 0x1000445F0, symSize: 0x64 }
  - { offset: 0x1D657B, size: 0x8, addend: 0x0, symName: ___sanitizer_cov_pcs_init, symObjAddr: 0x1E84, symBinAddr: 0x1000445F0, symSize: 0x64 }
  - { offset: 0x1D6603, size: 0x8, addend: 0x0, symName: ___sanitizer_cov_trace_pc_indir, symObjAddr: 0x1EE8, symBinAddr: 0x100044654, symSize: 0x60 }
  - { offset: 0x1D6790, size: 0x8, addend: 0x0, symName: ___sanitizer_cov_trace_cmp8, symObjAddr: 0x1F48, symBinAddr: 0x1000446B4, symSize: 0x88 }
  - { offset: 0x1D68EC, size: 0x8, addend: 0x0, symName: ___sanitizer_cov_trace_const_cmp8, symObjAddr: 0x1FD0, symBinAddr: 0x10004473C, symSize: 0x88 }
  - { offset: 0x1D6AF5, size: 0x8, addend: 0x0, symName: ___sanitizer_cov_trace_cmp4, symObjAddr: 0x2058, symBinAddr: 0x1000447C4, symSize: 0x84 }
  - { offset: 0x1D6C3C, size: 0x8, addend: 0x0, symName: ___sanitizer_cov_trace_const_cmp4, symObjAddr: 0x20DC, symBinAddr: 0x100044848, symSize: 0x84 }
  - { offset: 0x1D6DF0, size: 0x8, addend: 0x0, symName: ___sanitizer_cov_trace_cmp2, symObjAddr: 0x2160, symBinAddr: 0x1000448CC, symSize: 0x70 }
  - { offset: 0x1D6F1E, size: 0x8, addend: 0x0, symName: ___sanitizer_cov_trace_const_cmp2, symObjAddr: 0x21D0, symBinAddr: 0x10004493C, symSize: 0x70 }
  - { offset: 0x1D70B9, size: 0x8, addend: 0x0, symName: ___sanitizer_cov_trace_cmp1, symObjAddr: 0x2240, symBinAddr: 0x1000449AC, symSize: 0x70 }
  - { offset: 0x1D71E7, size: 0x8, addend: 0x0, symName: ___sanitizer_cov_trace_const_cmp1, symObjAddr: 0x22B0, symBinAddr: 0x100044A1C, symSize: 0x70 }
  - { offset: 0x1D7315, size: 0x8, addend: 0x0, symName: ___sanitizer_cov_trace_switch, symObjAddr: 0x2320, symBinAddr: 0x100044A8C, symSize: 0x2C4 }
  - { offset: 0x1D7877, size: 0x8, addend: 0x0, symName: ___sanitizer_cov_trace_div4, symObjAddr: 0x25E4, symBinAddr: 0x100044D50, symSize: 0x80 }
  - { offset: 0x1D79AC, size: 0x8, addend: 0x0, symName: ___sanitizer_cov_trace_div8, symObjAddr: 0x2664, symBinAddr: 0x100044DD0, symSize: 0x84 }
  - { offset: 0x1D7B69, size: 0x8, addend: 0x0, symName: ___sanitizer_cov_trace_gep, symObjAddr: 0x26E8, symBinAddr: 0x100044E54, symSize: 0x84 }
  - { offset: 0x1D7CB9, size: 0x8, addend: 0x0, symName: ___sanitizer_weak_hook_memcmp, symObjAddr: 0x276C, symBinAddr: 0x100044ED8, symSize: 0x44 }
  - { offset: 0x1D7D3A, size: 0x8, addend: 0x0, symName: ___sanitizer_weak_hook_strncmp, symObjAddr: 0x27B0, symBinAddr: 0x100044F1C, symSize: 0xA8 }
  - { offset: 0x1D7E09, size: 0x8, addend: 0x0, symName: ___sanitizer_weak_hook_strcmp, symObjAddr: 0x2858, symBinAddr: 0x100044FC4, symSize: 0x74 }
  - { offset: 0x1D7EFB, size: 0x8, addend: 0x0, symName: ___sanitizer_weak_hook_strncasecmp, symObjAddr: 0x28CC, symBinAddr: 0x100045038, symSize: 0xA8 }
  - { offset: 0x1D8055, size: 0x8, addend: 0x0, symName: ___sanitizer_weak_hook_strcasecmp, symObjAddr: 0x2974, symBinAddr: 0x1000450E0, symSize: 0x74 }
  - { offset: 0x1D814F, size: 0x8, addend: 0x0, symName: ___sanitizer_weak_hook_strstr, symObjAddr: 0x29E8, symBinAddr: 0x100045154, symSize: 0x94 }
  - { offset: 0x1D8258, size: 0x8, addend: 0x0, symName: ___sanitizer_weak_hook_strcasestr, symObjAddr: 0x2A7C, symBinAddr: 0x1000451E8, symSize: 0x94 }
  - { offset: 0x1D8361, size: 0x8, addend: 0x0, symName: ___sanitizer_weak_hook_memmem, symObjAddr: 0x2B10, symBinAddr: 0x10004527C, symSize: 0x88 }
  - { offset: 0x1D8702, size: 0x8, addend: 0x0, symName: __ZN6fuzzer7TracePCC2Ev, symObjAddr: 0x2B98, symBinAddr: 0x100045304, symSize: 0x17C }
  - { offset: 0x1D8F61, size: 0x8, addend: 0x0, symName: __ZNSt3__112__hash_tableINS_17__hash_value_typeImmEENS_22__unordered_map_hasherImNS_4pairIKmmEENS_4hashImEENS_8equal_toImEELb1EEENS_21__unordered_map_equalImS6_SA_S8_Lb1EEENS_9allocatorIS6_EEE11__do_rehashILb1EEEvm, symObjAddr: 0x3094, symBinAddr: 0x1000457A4, symSize: 0x1CC }
  - { offset: 0x1D93CF, size: 0x8, addend: 0x0, symName: __GLOBAL__sub_I_FuzzerTracePC.cpp, symObjAddr: 0x32F4, symBinAddr: 0x100045990, symSize: 0x3C }
  - { offset: 0x1DB318, size: 0x8, addend: 0x0, symName: __ZN6fuzzer6Base64ERKNSt3__16vectorIhNS0_9allocatorIhEEEE, symObjAddr: 0x1040, symBinAddr: 0x100046740, symSize: 0x23C }
  - { offset: 0x1DB826, size: 0x8, addend: 0x0, symName: __ZN6fuzzerL14SymbolizeMutexE, symObjAddr: 0x1B18, symBinAddr: 0x10005FAE8, symSize: 0x0 }
  - { offset: 0x1DB834, size: 0x8, addend: 0x0, symName: __ZN6fuzzer13PrintHexArrayEPKhmPKc, symObjAddr: 0x0, symBinAddr: 0x1000459CC, symSize: 0x68 }
  - { offset: 0x1DB8FA, size: 0x8, addend: 0x0, symName: __ZN6fuzzer5PrintERKNSt3__16vectorIhNS0_9allocatorIhEEEEPKc, symObjAddr: 0x68, symBinAddr: 0x100045A34, symSize: 0x68 }
  - { offset: 0x1DB9DB, size: 0x8, addend: 0x0, symName: __ZN6fuzzer14PrintASCIIByteEh, symObjAddr: 0xD0, symBinAddr: 0x100045A9C, symSize: 0x88 }
  - { offset: 0x1DBA4C, size: 0x8, addend: 0x0, symName: __ZN6fuzzer10PrintASCIIEPKhmPKc, symObjAddr: 0x158, symBinAddr: 0x100045B24, symSize: 0xCC }
  - { offset: 0x1DBB10, size: 0x8, addend: 0x0, symName: __ZN6fuzzer10PrintASCIIERKNSt3__16vectorIhNS0_9allocatorIhEEEEPKc, symObjAddr: 0x224, symBinAddr: 0x100045BF0, symSize: 0xCC }
  - { offset: 0x1DBC02, size: 0x8, addend: 0x0, symName: __ZN6fuzzer7ToASCIIEPhm, symObjAddr: 0x2F0, symBinAddr: 0x100045CBC, symSize: 0x54 }
  - { offset: 0x1DBD09, size: 0x8, addend: 0x0, symName: __ZN6fuzzer7IsASCIIERKNSt3__16vectorIhNS0_9allocatorIhEEEE, symObjAddr: 0x344, symBinAddr: 0x100045D10, symSize: 0xA0 }
  - { offset: 0x1DBE36, size: 0x8, addend: 0x0, symName: __ZN6fuzzer7IsASCIIEPKhm, symObjAddr: 0x3E4, symBinAddr: 0x100045DB0, symSize: 0xA8 }
  - { offset: 0x1DBE5E, size: 0x8, addend: 0x0, symName: __ZN6fuzzer7IsASCIIEPKhm, symObjAddr: 0x3E4, symBinAddr: 0x100045DB0, symSize: 0xA8 }
  - { offset: 0x1DBEF7, size: 0x8, addend: 0x0, symName: __ZN6fuzzer23ParseOneDictionaryEntryERKNSt3__112basic_stringIcNS0_11char_traitsIcEENS0_9allocatorIcEEEEPNS0_6vectorIhNS4_IhEEEE, symObjAddr: 0x48C, symBinAddr: 0x100045E58, symSize: 0x4DC }
  - { offset: 0x1DCEC5, size: 0x8, addend: 0x0, symName: __ZN6fuzzer19ParseDictionaryFileERKNSt3__112basic_stringIcNS0_11char_traitsIcEENS0_9allocatorIcEEEEPNS0_6vectorINS9_IhNS4_IhEEEENS4_ISB_EEEE, symObjAddr: 0x968, symBinAddr: 0x100046334, symSize: 0x40C }
  - { offset: 0x1DCED0, size: 0x8, addend: 0x0, symName: __ZN6fuzzer19ParseDictionaryFileERKNSt3__112basic_stringIcNS0_11char_traitsIcEENS0_9allocatorIcEEEEPNS0_6vectorINS9_IhNS4_IhEEEENS4_ISB_EEEE, symObjAddr: 0x968, symBinAddr: 0x100046334, symSize: 0x40C }
  - { offset: 0x1DDD99, size: 0x8, addend: 0x0, symName: __ZN6fuzzer10DescribePCEPKcm, symObjAddr: 0x127C, symBinAddr: 0x10004697C, symSize: 0x18C }
  - { offset: 0x1DE391, size: 0x8, addend: 0x0, symName: __ZN6fuzzer7PrintPCEPKcS1_m, symObjAddr: 0x1408, symBinAddr: 0x100046B08, symSize: 0xA8 }
  - { offset: 0x1DE39C, size: 0x8, addend: 0x0, symName: __ZN6fuzzer7PrintPCEPKcS1_m, symObjAddr: 0x1408, symBinAddr: 0x100046B08, symSize: 0xA8 }
  - { offset: 0x1DE5A6, size: 0x8, addend: 0x0, symName: __ZN6fuzzer15PrintStackTraceEv, symObjAddr: 0x14B0, symBinAddr: 0x100046BB0, symSize: 0x5C }
  - { offset: 0x1DE648, size: 0x8, addend: 0x0, symName: __ZN6fuzzer18PrintMemoryProfileEv, symObjAddr: 0x150C, symBinAddr: 0x100046C0C, symSize: 0x64 }
  - { offset: 0x1DE6F6, size: 0x8, addend: 0x0, symName: __ZN6fuzzer16NumberOfCpuCoresEv, symObjAddr: 0x1570, symBinAddr: 0x100046C70, symSize: 0x30 }
  - { offset: 0x1DE733, size: 0x8, addend: 0x0, symName: __ZN6fuzzer14SimpleFastHashEPKvmy, symObjAddr: 0x15A0, symBinAddr: 0x100046CA0, symSize: 0x20 }
  - { offset: 0x1DE79F, size: 0x8, addend: 0x0, symName: __ZN6fuzzer14SimpleFastHashEPKvmy, symObjAddr: 0x15A0, symBinAddr: 0x100046CA0, symSize: 0x20 }
  - { offset: 0x1E7A1F, size: 0x8, addend: 0x0, symName: __GLOBAL__sub_I_FuzzerUtil.cpp, symObjAddr: 0x1930, symBinAddr: 0x100046CC0, symSize: 0x1C }
  - { offset: 0x1E7A37, size: 0x8, addend: 0x0, symName: __GLOBAL__sub_I_FuzzerUtil.cpp, symObjAddr: 0x1930, symBinAddr: 0x100046CC0, symSize: 0x1C }
  - { offset: 0x1E9918, size: 0x8, addend: 0x0, symName: __ZN6fuzzerL11SignalMutexE, symObjAddr: 0xBB8, symBinAddr: 0x10005FB28, symSize: 0x0 }
  - { offset: 0x1E9926, size: 0x8, addend: 0x0, symName: __ZN6fuzzer14ExecuteCommandERKNS_7CommandE, symObjAddr: 0x0, symBinAddr: 0x100046CDC, symSize: 0x3CC }
  - { offset: 0x1E9950, size: 0x8, addend: 0x0, symName: __MergedGlobals, symObjAddr: 0x27450, symBinAddr: 0x1000614F8, symSize: 0x0 }
  - { offset: 0x1EA00D, size: 0x8, addend: 0x0, symName: __MergedGlobals, symObjAddr: 0x27450, symBinAddr: 0x1000614F8, symSize: 0x0 }
  - { offset: 0x1EA027, size: 0x8, addend: 0x0, symName: __MergedGlobals, symObjAddr: 0x27450, symBinAddr: 0x1000614F8, symSize: 0x0 }
  - { offset: 0x1EA043, size: 0x8, addend: 0x0, symName: __MergedGlobals, symObjAddr: 0x27450, symBinAddr: 0x1000614F8, symSize: 0x0 }
  - { offset: 0x1EA05F, size: 0x8, addend: 0x0, symName: __MergedGlobals, symObjAddr: 0x27450, symBinAddr: 0x1000614F8, symSize: 0x0 }
  - { offset: 0x1EA2EE, size: 0x8, addend: 0x0, symName: __ZN6fuzzer13DiscardOutputEi, symObjAddr: 0x7C4, symBinAddr: 0x1000470A8, symSize: 0x54 }
  - { offset: 0x1EA368, size: 0x8, addend: 0x0, symName: __ZN6fuzzer13SetThreadNameERNSt3__16threadERKNS0_12basic_stringIcNS0_11char_traitsIcEENS0_9allocatorIcEEEE, symObjAddr: 0x818, symBinAddr: 0x1000470FC, symSize: 0x4 }
  - { offset: 0x1EF27A, size: 0x8, addend: 0x0, symName: __GLOBAL__sub_I_FuzzerUtilDarwin.cpp, symObjAddr: 0xB9C, symBinAddr: 0x100047100, symSize: 0x1C }
  - { offset: 0x1F0EE4, size: 0x8, addend: 0x0, symName: __ZN6fuzzer13DiscardOutputEi, symObjAddr: 0x7C4, symBinAddr: 0x1000470A8, symSize: 0x54 }
  - { offset: 0x1F1CA1, size: 0x8, addend: 0x0, symName: __GLOBAL__sub_I_FuzzerUtilDarwin.cpp, symObjAddr: 0xB9C, symBinAddr: 0x100047100, symSize: 0x1C }
  - { offset: 0x1F1CB9, size: 0x8, addend: 0x0, symName: __GLOBAL__sub_I_FuzzerUtilDarwin.cpp, symObjAddr: 0xB9C, symBinAddr: 0x100047100, symSize: 0x1C }
  - { offset: 0x1F39BF, size: 0x8, addend: 0x0, symName: __ZN6fuzzer14ExecuteCommandERKNS_7CommandEPNSt3__112basic_stringIcNS3_11char_traitsIcEENS3_9allocatorIcEEEE, symObjAddr: 0x0, symBinAddr: 0x10004711C, symSize: 0xE0 }
  - { offset: 0x1F39E8, size: 0x8, addend: 0x0, symName: __ZN6fuzzer8PageSizeEv, symObjAddr: 0x970, symBinAddr: 0x100047694, symSize: 0x60 }
  - { offset: 0x1F3A12, size: 0x8, addend: 0x0, symName: __MergedGlobals, symObjAddr: 0x27228, symBinAddr: 0x100061538, symSize: 0x0 }
  - { offset: 0x1F3A3D, size: 0x8, addend: 0x0, symName: __ZN6fuzzerL21upstream_segv_handlerE, symObjAddr: 0x27220, symBinAddr: 0x100061530, symSize: 0x0 }
  - { offset: 0x1F3A4B, size: 0x8, addend: 0x0, symName: __ZN6fuzzer14ExecuteCommandERKNS_7CommandEPNSt3__112basic_stringIcNS3_11char_traitsIcEENS3_9allocatorIcEEEE, symObjAddr: 0x0, symBinAddr: 0x10004711C, symSize: 0xE0 }
  - { offset: 0x1F3F23, size: 0x8, addend: 0x0, symName: __ZN6fuzzer8SetTimerEi, symObjAddr: 0x4D8, symBinAddr: 0x1000471FC, symSize: 0x7C }
  - { offset: 0x1F3F9D, size: 0x8, addend: 0x0, symName: __ZN6fuzzerL12SetSigactionEiPFviP9__siginfoPvE, symObjAddr: 0x554, symBinAddr: 0x100047278, symSize: 0xB0 }
  - { offset: 0x1F3FAE, size: 0x8, addend: 0x0, symName: __ZN6fuzzerL12SetSigactionEiPFviP9__siginfoPvE, symObjAddr: 0x554, symBinAddr: 0x100047278, symSize: 0xB0 }
  - { offset: 0x1F4067, size: 0x8, addend: 0x0, symName: __ZN6fuzzerL12AlarmHandlerEiP9__siginfoPv, symObjAddr: 0x604, symBinAddr: 0x100047328, symSize: 0x4 }
  - { offset: 0x1F408B, size: 0x8, addend: 0x0, symName: __ZN6fuzzerL12AlarmHandlerEiP9__siginfoPv, symObjAddr: 0x604, symBinAddr: 0x100047328, symSize: 0x4 }
  - { offset: 0x1F40E4, size: 0x8, addend: 0x0, symName: __ZN6fuzzer16SetSignalHandlerERKNS_14FuzzingOptionsE, symObjAddr: 0x608, symBinAddr: 0x10004732C, symSize: 0x238 }
  - { offset: 0x1F424A, size: 0x8, addend: 0x0, symName: __ZN6fuzzerL16InterruptHandlerEiP9__siginfoPv, symObjAddr: 0x840, symBinAddr: 0x100047564, symSize: 0x4 }
  - { offset: 0x1F425B, size: 0x8, addend: 0x0, symName: __ZN6fuzzerL16InterruptHandlerEiP9__siginfoPv, symObjAddr: 0x840, symBinAddr: 0x100047564, symSize: 0x4 }
  - { offset: 0x1F428E, size: 0x8, addend: 0x0, symName: __ZN6fuzzerL11SegvHandlerEiP9__siginfoPv, symObjAddr: 0x844, symBinAddr: 0x100047568, symSize: 0x14 }
  - { offset: 0x1F42DF, size: 0x8, addend: 0x0, symName: __ZN6fuzzerL12CrashHandlerEiP9__siginfoPv, symObjAddr: 0x858, symBinAddr: 0x10004757C, symSize: 0x4 }
  - { offset: 0x1F4312, size: 0x8, addend: 0x0, symName: __ZN6fuzzerL21FileSizeExceedHandlerEiP9__siginfoPv, symObjAddr: 0x85C, symBinAddr: 0x100047580, symSize: 0x4 }
  - { offset: 0x1F4345, size: 0x8, addend: 0x0, symName: __ZN6fuzzerL19GracefulExitHandlerEiP9__siginfoPv, symObjAddr: 0x860, symBinAddr: 0x100047584, symSize: 0x4 }
  - { offset: 0x1F4378, size: 0x8, addend: 0x0, symName: __ZN6fuzzer12SleepSecondsEi, symObjAddr: 0x864, symBinAddr: 0x100047588, symSize: 0x4 }
  - { offset: 0x1F43A4, size: 0x8, addend: 0x0, symName: __ZN6fuzzer12SleepSecondsEi, symObjAddr: 0x864, symBinAddr: 0x100047588, symSize: 0x4 }
  - { offset: 0x1F43B7, size: 0x8, addend: 0x0, symName: __ZN6fuzzer6GetPidEv, symObjAddr: 0x868, symBinAddr: 0x10004758C, symSize: 0x18 }
  - { offset: 0x1F43E4, size: 0x8, addend: 0x0, symName: __ZN6fuzzer12GetPeakRSSMbEv, symObjAddr: 0x880, symBinAddr: 0x1000475A4, symSize: 0x4C }
  - { offset: 0x1F442C, size: 0x8, addend: 0x0, symName: __ZN6fuzzer15OpenProcessPipeEPKcS1_, symObjAddr: 0x8CC, symBinAddr: 0x1000475F0, symSize: 0x4 }
  - { offset: 0x1F446A, size: 0x8, addend: 0x0, symName: __ZN6fuzzer15OpenProcessPipeEPKcS1_, symObjAddr: 0x8CC, symBinAddr: 0x1000475F0, symSize: 0x4 }
  - { offset: 0x1F4484, size: 0x8, addend: 0x0, symName: __ZN6fuzzer16CloseProcessPipeEP7__sFILE, symObjAddr: 0x8D0, symBinAddr: 0x1000475F4, symSize: 0x4 }
  - { offset: 0x1F44B4, size: 0x8, addend: 0x0, symName: __ZN6fuzzer16CloseProcessPipeEP7__sFILE, symObjAddr: 0x8D0, symBinAddr: 0x1000475F4, symSize: 0x4 }
  - { offset: 0x1F44C7, size: 0x8, addend: 0x0, symName: __ZN6fuzzer12SearchMemoryEPKvmS1_m, symObjAddr: 0x8D4, symBinAddr: 0x1000475F8, symSize: 0x4 }
  - { offset: 0x1F4521, size: 0x8, addend: 0x0, symName: __ZN6fuzzer12SearchMemoryEPKvmS1_m, symObjAddr: 0x8D4, symBinAddr: 0x1000475F8, symSize: 0x4 }
  - { offset: 0x1F4549, size: 0x8, addend: 0x0, symName: __ZN6fuzzer14DisassembleCmdERKNSt3__112basic_stringIcNS0_11char_traitsIcEENS0_9allocatorIcEEEE, symObjAddr: 0x8D8, symBinAddr: 0x1000475FC, symSize: 0x10 }
  - { offset: 0x1F4595, size: 0x8, addend: 0x0, symName: __ZN6fuzzer14SearchRegexCmdERKNSt3__112basic_stringIcNS0_11char_traitsIcEENS0_9allocatorIcEEEE, symObjAddr: 0x8E8, symBinAddr: 0x10004760C, symSize: 0x88 }
  - { offset: 0x1FB19E, size: 0x8, addend: 0x0, symName: __ZN6fuzzer8SetTimerEi, symObjAddr: 0x4D8, symBinAddr: 0x1000471FC, symSize: 0x7C }
  - { offset: 0x1FDD2B, size: 0x8, addend: 0x0, symName: _main, symObjAddr: 0x0, symBinAddr: 0x1000476F4, symSize: 0x34 }
  - { offset: 0x1FDD39, size: 0x8, addend: 0x0, symName: _main, symObjAddr: 0x0, symBinAddr: 0x1000476F4, symSize: 0x34 }
...
